(lp0
(lp1
(i__main__
Cell
p2
(dp3
S'terr'
p4
I0
sba(i__main__
Cell
p5
(dp6
g4
I0
sba(i__main__
Cell
p7
(dp8
g4
I0
sba(i__main__
Cell
p9
(dp10
g4
I0
sba(i__main__
Cell
p11
(dp12
g4
I0
sba(i__main__
Cell
p13
(dp14
g4
I0
sba(i__main__
Cell
p15
(dp16
g4
I0
sba(i__main__
Cell
p17
(dp18
g4
I0
sba(i__main__
Cell
p19
(dp20
g4
I0
sba(i__main__
Cell
p21
(dp22
g4
I0
sba(i__main__
Cell
p23
(dp24
g4
I0
sba(i__main__
Cell
p25
(dp26
g4
I0
sba(i__main__
Cell
p27
(dp28
g4
I0
sba(i__main__
Cell
p29
(dp30
g4
I0
sba(i__main__
Cell
p31
(dp32
g4
I0
sba(i__main__
Cell
p33
(dp34
g4
I0
sba(i__main__
Cell
p35
(dp36
g4
I0
sba(i__main__
Cell
p37
(dp38
g4
I0
sba(i__main__
Cell
p39
(dp40
g4
I0
sba(i__main__
Cell
p41
(dp42
g4
I0
sba(i__main__
Cell
p43
(dp44
g4
I0
sba(i__main__
Cell
p45
(dp46
g4
I0
sba(i__main__
Cell
p47
(dp48
g4
I0
sba(i__main__
Cell
p49
(dp50
g4
I0
sba(i__main__
Cell
p51
(dp52
g4
I0
sba(i__main__
Cell
p53
(dp54
g4
I0
sba(i__main__
Cell
p55
(dp56
g4
I0
sba(i__main__
Cell
p57
(dp58
g4
I0
sba(i__main__
Cell
p59
(dp60
g4
I0
sba(i__main__
Cell
p61
(dp62
g4
I0
sbaa(lp63
(i__main__
Cell
p64
(dp65
g4
I0
sba(i__main__
Cell
p66
(dp67
g4
I1
sba(i__main__
Cell
p68
(dp69
g4
I0
sba(i__main__
Cell
p70
(dp71
g4
I0
sba(i__main__
Cell
p72
(dp73
g4
I0
sba(i__main__
Cell
p74
(dp75
g4
I0
sba(i__main__
Cell
p76
(dp77
g4
I0
sba(i__main__
Cell
p78
(dp79
g4
I0
sba(i__main__
Cell
p80
(dp81
g4
I0
sba(i__main__
Cell
p82
(dp83
g4
I0
sba(i__main__
Cell
p84
(dp85
g4
I0
sba(i__main__
Cell
p86
(dp87
g4
I0
sba(i__main__
Cell
p88
(dp89
g4
I0
sba(i__main__
Cell
p90
(dp91
g4
I0
sba(i__main__
Cell
p92
(dp93
g4
I0
sba(i__main__
Cell
p94
(dp95
g4
I0
sba(i__main__
Cell
p96
(dp97
g4
I0
sba(i__main__
Cell
p98
(dp99
g4
I0
sba(i__main__
Cell
p100
(dp101
g4
I0
sba(i__main__
Cell
p102
(dp103
g4
I0
sba(i__main__
Cell
p104
(dp105
g4
I0
sba(i__main__
Cell
p106
(dp107
g4
I0
sba(i__main__
Cell
p108
(dp109
g4
I0
sba(i__main__
Cell
p110
(dp111
g4
I0
sba(i__main__
Cell
p112
(dp113
g4
I0
sba(i__main__
Cell
p114
(dp115
g4
I0
sba(i__main__
Cell
p116
(dp117
g4
I0
sba(i__main__
Cell
p118
(dp119
g4
I0
sba(i__main__
Cell
p120
(dp121
g4
I0
sba(i__main__
Cell
p122
(dp123
g4
I0
sbaa(lp124
(i__main__
Cell
p125
(dp126
g4
I0
sba(i__main__
Cell
p127
(dp128
g4
I2
sba(i__main__
Cell
p129
(dp130
g4
I0
sba(i__main__
Cell
p131
(dp132
g4
I0
sba(i__main__
Cell
p133
(dp134
g4
I0
sba(i__main__
Cell
p135
(dp136
g4
I0
sba(i__main__
Cell
p137
(dp138
g4
I0
sba(i__main__
Cell
p139
(dp140
g4
I0
sba(i__main__
Cell
p141
(dp142
g4
I0
sba(i__main__
Cell
p143
(dp144
g4
I0
sba(i__main__
Cell
p145
(dp146
g4
I0
sba(i__main__
Cell
p147
(dp148
g4
I0
sba(i__main__
Cell
p149
(dp150
g4
I0
sba(i__main__
Cell
p151
(dp152
g4
I0
sba(i__main__
Cell
p153
(dp154
g4
I0
sba(i__main__
Cell
p155
(dp156
g4
I0
sba(i__main__
Cell
p157
(dp158
g4
I0
sba(i__main__
Cell
p159
(dp160
g4
I0
sba(i__main__
Cell
p161
(dp162
g4
I0
sba(i__main__
Cell
p163
(dp164
g4
I0
sba(i__main__
Cell
p165
(dp166
g4
I0
sba(i__main__
Cell
p167
(dp168
g4
I0
sba(i__main__
Cell
p169
(dp170
g4
I0
sba(i__main__
Cell
p171
(dp172
g4
I0
sba(i__main__
Cell
p173
(dp174
g4
I0
sba(i__main__
Cell
p175
(dp176
g4
I0
sba(i__main__
Cell
p177
(dp178
g4
I0
sba(i__main__
Cell
p179
(dp180
g4
I0
sba(i__main__
Cell
p181
(dp182
g4
I0
sba(i__main__
Cell
p183
(dp184
g4
I0
sbaa(lp185
(i__main__
Cell
p186
(dp187
g4
I0
sba(i__main__
Cell
p188
(dp189
g4
I0
sba(i__main__
Cell
p190
(dp191
g4
I0
sba(i__main__
Cell
p192
(dp193
g4
I0
sba(i__main__
Cell
p194
(dp195
g4
I0
sba(i__main__
Cell
p196
(dp197
g4
I0
sba(i__main__
Cell
p198
(dp199
g4
I0
sba(i__main__
Cell
p200
(dp201
g4
I0
sba(i__main__
Cell
p202
(dp203
g4
I0
sba(i__main__
Cell
p204
(dp205
g4
I0
sba(i__main__
Cell
p206
(dp207
g4
I0
sba(i__main__
Cell
p208
(dp209
g4
I0
sba(i__main__
Cell
p210
(dp211
g4
I0
sba(i__main__
Cell
p212
(dp213
g4
I0
sba(i__main__
Cell
p214
(dp215
g4
I0
sba(i__main__
Cell
p216
(dp217
g4
I0
sba(i__main__
Cell
p218
(dp219
g4
I0
sba(i__main__
Cell
p220
(dp221
g4
I0
sba(i__main__
Cell
p222
(dp223
g4
I0
sba(i__main__
Cell
p224
(dp225
g4
I0
sba(i__main__
Cell
p226
(dp227
g4
I0
sba(i__main__
Cell
p228
(dp229
g4
I0
sba(i__main__
Cell
p230
(dp231
g4
I0
sba(i__main__
Cell
p232
(dp233
g4
I0
sba(i__main__
Cell
p234
(dp235
g4
I0
sba(i__main__
Cell
p236
(dp237
g4
I0
sba(i__main__
Cell
p238
(dp239
g4
I0
sba(i__main__
Cell
p240
(dp241
g4
I0
sba(i__main__
Cell
p242
(dp243
g4
I0
sba(i__main__
Cell
p244
(dp245
g4
I0
sbaa(lp246
(i__main__
Cell
p247
(dp248
g4
I0
sba(i__main__
Cell
p249
(dp250
g4
I0
sba(i__main__
Cell
p251
(dp252
g4
I0
sba(i__main__
Cell
p253
(dp254
g4
I0
sba(i__main__
Cell
p255
(dp256
g4
I0
sba(i__main__
Cell
p257
(dp258
g4
I0
sba(i__main__
Cell
p259
(dp260
g4
I0
sba(i__main__
Cell
p261
(dp262
g4
I0
sba(i__main__
Cell
p263
(dp264
g4
I0
sba(i__main__
Cell
p265
(dp266
g4
I0
sba(i__main__
Cell
p267
(dp268
g4
I0
sba(i__main__
Cell
p269
(dp270
g4
I0
sba(i__main__
Cell
p271
(dp272
g4
I0
sba(i__main__
Cell
p273
(dp274
g4
I0
sba(i__main__
Cell
p275
(dp276
g4
I0
sba(i__main__
Cell
p277
(dp278
g4
I0
sba(i__main__
Cell
p279
(dp280
g4
I0
sba(i__main__
Cell
p281
(dp282
g4
I0
sba(i__main__
Cell
p283
(dp284
g4
I0
sba(i__main__
Cell
p285
(dp286
g4
I0
sba(i__main__
Cell
p287
(dp288
g4
I0
sba(i__main__
Cell
p289
(dp290
g4
I0
sba(i__main__
Cell
p291
(dp292
g4
I0
sba(i__main__
Cell
p293
(dp294
g4
I0
sba(i__main__
Cell
p295
(dp296
g4
I0
sba(i__main__
Cell
p297
(dp298
g4
I0
sba(i__main__
Cell
p299
(dp300
g4
I0
sba(i__main__
Cell
p301
(dp302
g4
I0
sba(i__main__
Cell
p303
(dp304
g4
I0
sba(i__main__
Cell
p305
(dp306
g4
I0
sbaa(lp307
(i__main__
Cell
p308
(dp309
g4
I0
sba(i__main__
Cell
p310
(dp311
g4
I0
sba(i__main__
Cell
p312
(dp313
g4
I0
sba(i__main__
Cell
p314
(dp315
g4
I0
sba(i__main__
Cell
p316
(dp317
g4
I0
sba(i__main__
Cell
p318
(dp319
g4
I0
sba(i__main__
Cell
p320
(dp321
g4
I0
sba(i__main__
Cell
p322
(dp323
g4
I0
sba(i__main__
Cell
p324
(dp325
g4
I1
sba(i__main__
Cell
p326
(dp327
g4
I0
sba(i__main__
Cell
p328
(dp329
g4
I0
sba(i__main__
Cell
p330
(dp331
g4
I0
sba(i__main__
Cell
p332
(dp333
g4
I0
sba(i__main__
Cell
p334
(dp335
g4
I0
sba(i__main__
Cell
p336
(dp337
g4
I0
sba(i__main__
Cell
p338
(dp339
g4
I0
sba(i__main__
Cell
p340
(dp341
g4
I0
sba(i__main__
Cell
p342
(dp343
g4
I0
sba(i__main__
Cell
p344
(dp345
g4
I0
sba(i__main__
Cell
p346
(dp347
g4
I0
sba(i__main__
Cell
p348
(dp349
g4
I0
sba(i__main__
Cell
p350
(dp351
g4
I0
sba(i__main__
Cell
p352
(dp353
g4
I0
sba(i__main__
Cell
p354
(dp355
g4
I0
sba(i__main__
Cell
p356
(dp357
g4
I0
sba(i__main__
Cell
p358
(dp359
g4
I0
sba(i__main__
Cell
p360
(dp361
g4
I0
sba(i__main__
Cell
p362
(dp363
g4
I0
sba(i__main__
Cell
p364
(dp365
g4
I0
sba(i__main__
Cell
p366
(dp367
g4
I0
sbaa(lp368
(i__main__
Cell
p369
(dp370
g4
I0
sba(i__main__
Cell
p371
(dp372
g4
I0
sba(i__main__
Cell
p373
(dp374
g4
I0
sba(i__main__
Cell
p375
(dp376
g4
I0
sba(i__main__
Cell
p377
(dp378
g4
I0
sba(i__main__
Cell
p379
(dp380
g4
I0
sba(i__main__
Cell
p381
(dp382
g4
I0
sba(i__main__
Cell
p383
(dp384
g4
I0
sba(i__main__
Cell
p385
(dp386
g4
I0
sba(i__main__
Cell
p387
(dp388
g4
I0
sba(i__main__
Cell
p389
(dp390
g4
I0
sba(i__main__
Cell
p391
(dp392
g4
I0
sba(i__main__
Cell
p393
(dp394
g4
I0
sba(i__main__
Cell
p395
(dp396
g4
I0
sba(i__main__
Cell
p397
(dp398
g4
I0
sba(i__main__
Cell
p399
(dp400
g4
I0
sba(i__main__
Cell
p401
(dp402
g4
I0
sba(i__main__
Cell
p403
(dp404
g4
I0
sba(i__main__
Cell
p405
(dp406
g4
I0
sba(i__main__
Cell
p407
(dp408
g4
I0
sba(i__main__
Cell
p409
(dp410
g4
I0
sba(i__main__
Cell
p411
(dp412
g4
I0
sba(i__main__
Cell
p413
(dp414
g4
I0
sba(i__main__
Cell
p415
(dp416
g4
I0
sba(i__main__
Cell
p417
(dp418
g4
I0
sba(i__main__
Cell
p419
(dp420
g4
I0
sba(i__main__
Cell
p421
(dp422
g4
I0
sba(i__main__
Cell
p423
(dp424
g4
I0
sba(i__main__
Cell
p425
(dp426
g4
I0
sba(i__main__
Cell
p427
(dp428
g4
I0
sbaa(lp429
(i__main__
Cell
p430
(dp431
g4
I0
sba(i__main__
Cell
p432
(dp433
g4
I0
sba(i__main__
Cell
p434
(dp435
g4
I0
sba(i__main__
Cell
p436
(dp437
g4
I0
sba(i__main__
Cell
p438
(dp439
g4
I0
sba(i__main__
Cell
p440
(dp441
g4
I0
sba(i__main__
Cell
p442
(dp443
g4
I0
sba(i__main__
Cell
p444
(dp445
g4
I0
sba(i__main__
Cell
p446
(dp447
g4
I0
sba(i__main__
Cell
p448
(dp449
g4
I0
sba(i__main__
Cell
p450
(dp451
g4
I0
sba(i__main__
Cell
p452
(dp453
g4
I0
sba(i__main__
Cell
p454
(dp455
g4
I0
sba(i__main__
Cell
p456
(dp457
g4
I0
sba(i__main__
Cell
p458
(dp459
g4
I0
sba(i__main__
Cell
p460
(dp461
g4
I0
sba(i__main__
Cell
p462
(dp463
g4
I1
sba(i__main__
Cell
p464
(dp465
g4
I0
sba(i__main__
Cell
p466
(dp467
g4
I0
sba(i__main__
Cell
p468
(dp469
g4
I0
sba(i__main__
Cell
p470
(dp471
g4
I0
sba(i__main__
Cell
p472
(dp473
g4
I0
sba(i__main__
Cell
p474
(dp475
g4
I0
sba(i__main__
Cell
p476
(dp477
g4
I0
sba(i__main__
Cell
p478
(dp479
g4
I0
sba(i__main__
Cell
p480
(dp481
g4
I0
sba(i__main__
Cell
p482
(dp483
g4
I0
sba(i__main__
Cell
p484
(dp485
g4
I0
sba(i__main__
Cell
p486
(dp487
g4
I0
sba(i__main__
Cell
p488
(dp489
g4
I0
sbaa(lp490
(i__main__
Cell
p491
(dp492
g4
I0
sba(i__main__
Cell
p493
(dp494
g4
I0
sba(i__main__
Cell
p495
(dp496
g4
I0
sba(i__main__
Cell
p497
(dp498
g4
I0
sba(i__main__
Cell
p499
(dp500
g4
I0
sba(i__main__
Cell
p501
(dp502
g4
I0
sba(i__main__
Cell
p503
(dp504
g4
I0
sba(i__main__
Cell
p505
(dp506
g4
I0
sba(i__main__
Cell
p507
(dp508
g4
I0
sba(i__main__
Cell
p509
(dp510
g4
I1
sba(i__main__
Cell
p511
(dp512
g4
I0
sba(i__main__
Cell
p513
(dp514
g4
I0
sba(i__main__
Cell
p515
(dp516
g4
I0
sba(i__main__
Cell
p517
(dp518
g4
I1
sba(i__main__
Cell
p519
(dp520
g4
I0
sba(i__main__
Cell
p521
(dp522
g4
I0
sba(i__main__
Cell
p523
(dp524
g4
I0
sba(i__main__
Cell
p525
(dp526
g4
I0
sba(i__main__
Cell
p527
(dp528
g4
I0
sba(i__main__
Cell
p529
(dp530
g4
I0
sba(i__main__
Cell
p531
(dp532
g4
I0
sba(i__main__
Cell
p533
(dp534
g4
I0
sba(i__main__
Cell
p535
(dp536
g4
I0
sba(i__main__
Cell
p537
(dp538
g4
I0
sba(i__main__
Cell
p539
(dp540
g4
I0
sba(i__main__
Cell
p541
(dp542
g4
I0
sba(i__main__
Cell
p543
(dp544
g4
I0
sba(i__main__
Cell
p545
(dp546
g4
I0
sba(i__main__
Cell
p547
(dp548
g4
I0
sba(i__main__
Cell
p549
(dp550
g4
I0
sbaa(lp551
(i__main__
Cell
p552
(dp553
g4
I0
sba(i__main__
Cell
p554
(dp555
g4
I0
sba(i__main__
Cell
p556
(dp557
g4
I0
sba(i__main__
Cell
p558
(dp559
g4
I0
sba(i__main__
Cell
p560
(dp561
g4
I0
sba(i__main__
Cell
p562
(dp563
g4
I0
sba(i__main__
Cell
p564
(dp565
g4
I0
sba(i__main__
Cell
p566
(dp567
g4
I0
sba(i__main__
Cell
p568
(dp569
g4
I0
sba(i__main__
Cell
p570
(dp571
g4
I0
sba(i__main__
Cell
p572
(dp573
g4
I1
sba(i__main__
Cell
p574
(dp575
g4
I0
sba(i__main__
Cell
p576
(dp577
g4
I0
sba(i__main__
Cell
p578
(dp579
g4
I0
sba(i__main__
Cell
p580
(dp581
g4
I0
sba(i__main__
Cell
p582
(dp583
g4
I0
sba(i__main__
Cell
p584
(dp585
g4
I0
sba(i__main__
Cell
p586
(dp587
g4
I0
sba(i__main__
Cell
p588
(dp589
g4
I0
sba(i__main__
Cell
p590
(dp591
g4
I0
sba(i__main__
Cell
p592
(dp593
g4
I0
sba(i__main__
Cell
p594
(dp595
g4
I0
sba(i__main__
Cell
p596
(dp597
g4
I0
sba(i__main__
Cell
p598
(dp599
g4
I0
sba(i__main__
Cell
p600
(dp601
g4
I0
sba(i__main__
Cell
p602
(dp603
g4
I0
sba(i__main__
Cell
p604
(dp605
g4
I0
sba(i__main__
Cell
p606
(dp607
g4
I0
sba(i__main__
Cell
p608
(dp609
g4
I0
sba(i__main__
Cell
p610
(dp611
g4
I0
sbaa(lp612
(i__main__
Cell
p613
(dp614
g4
I0
sba(i__main__
Cell
p615
(dp616
g4
I0
sba(i__main__
Cell
p617
(dp618
g4
I0
sba(i__main__
Cell
p619
(dp620
g4
I0
sba(i__main__
Cell
p621
(dp622
g4
I0
sba(i__main__
Cell
p623
(dp624
g4
I0
sba(i__main__
Cell
p625
(dp626
g4
I0
sba(i__main__
Cell
p627
(dp628
g4
I0
sba(i__main__
Cell
p629
(dp630
g4
I0
sba(i__main__
Cell
p631
(dp632
g4
I0
sba(i__main__
Cell
p633
(dp634
g4
I0
sba(i__main__
Cell
p635
(dp636
g4
I1
sba(i__main__
Cell
p637
(dp638
g4
I1
sba(i__main__
Cell
p639
(dp640
g4
I0
sba(i__main__
Cell
p641
(dp642
g4
I0
sba(i__main__
Cell
p643
(dp644
g4
I0
sba(i__main__
Cell
p645
(dp646
g4
I0
sba(i__main__
Cell
p647
(dp648
g4
I0
sba(i__main__
Cell
p649
(dp650
g4
I0
sba(i__main__
Cell
p651
(dp652
g4
I0
sba(i__main__
Cell
p653
(dp654
g4
I0
sba(i__main__
Cell
p655
(dp656
g4
I0
sba(i__main__
Cell
p657
(dp658
g4
I0
sba(i__main__
Cell
p659
(dp660
g4
I0
sba(i__main__
Cell
p661
(dp662
g4
I0
sba(i__main__
Cell
p663
(dp664
g4
I0
sba(i__main__
Cell
p665
(dp666
g4
I0
sba(i__main__
Cell
p667
(dp668
g4
I0
sba(i__main__
Cell
p669
(dp670
g4
I0
sba(i__main__
Cell
p671
(dp672
g4
I0
sbaa(lp673
(i__main__
Cell
p674
(dp675
g4
I0
sba(i__main__
Cell
p676
(dp677
g4
I0
sba(i__main__
Cell
p678
(dp679
g4
I0
sba(i__main__
Cell
p680
(dp681
g4
I0
sba(i__main__
Cell
p682
(dp683
g4
I0
sba(i__main__
Cell
p684
(dp685
g4
I0
sba(i__main__
Cell
p686
(dp687
g4
I0
sba(i__main__
Cell
p688
(dp689
g4
I0
sba(i__main__
Cell
p690
(dp691
g4
I0
sba(i__main__
Cell
p692
(dp693
g4
I0
sba(i__main__
Cell
p694
(dp695
g4
I1
sba(i__main__
Cell
p696
(dp697
g4
I0
sba(i__main__
Cell
p698
(dp699
g4
I1
sba(i__main__
Cell
p700
(dp701
g4
I0
sba(i__main__
Cell
p702
(dp703
g4
I0
sba(i__main__
Cell
p704
(dp705
g4
I0
sba(i__main__
Cell
p706
(dp707
g4
I0
sba(i__main__
Cell
p708
(dp709
g4
I0
sba(i__main__
Cell
p710
(dp711
g4
I0
sba(i__main__
Cell
p712
(dp713
g4
I0
sba(i__main__
Cell
p714
(dp715
g4
I0
sba(i__main__
Cell
p716
(dp717
g4
I0
sba(i__main__
Cell
p718
(dp719
g4
I0
sba(i__main__
Cell
p720
(dp721
g4
I0
sba(i__main__
Cell
p722
(dp723
g4
I0
sba(i__main__
Cell
p724
(dp725
g4
I0
sba(i__main__
Cell
p726
(dp727
g4
I0
sba(i__main__
Cell
p728
(dp729
g4
I0
sba(i__main__
Cell
p730
(dp731
g4
I0
sba(i__main__
Cell
p732
(dp733
g4
I0
sbaa(lp734
(i__main__
Cell
p735
(dp736
g4
I0
sba(i__main__
Cell
p737
(dp738
g4
I0
sba(i__main__
Cell
p739
(dp740
g4
I0
sba(i__main__
Cell
p741
(dp742
g4
I0
sba(i__main__
Cell
p743
(dp744
g4
I0
sba(i__main__
Cell
p745
(dp746
g4
I0
sba(i__main__
Cell
p747
(dp748
g4
I0
sba(i__main__
Cell
p749
(dp750
g4
I0
sba(i__main__
Cell
p751
(dp752
g4
I0
sba(i__main__
Cell
p753
(dp754
g4
I0
sba(i__main__
Cell
p755
(dp756
g4
I0
sba(i__main__
Cell
p757
(dp758
g4
I0
sba(i__main__
Cell
p759
(dp760
g4
I1
sba(i__main__
Cell
p761
(dp762
g4
I0
sba(i__main__
Cell
p763
(dp764
g4
I0
sba(i__main__
Cell
p765
(dp766
g4
I0
sba(i__main__
Cell
p767
(dp768
g4
I0
sba(i__main__
Cell
p769
(dp770
g4
I0
sba(i__main__
Cell
p771
(dp772
g4
I0
sba(i__main__
Cell
p773
(dp774
g4
I0
sba(i__main__
Cell
p775
(dp776
g4
I0
sba(i__main__
Cell
p777
(dp778
g4
I0
sba(i__main__
Cell
p779
(dp780
g4
I0
sba(i__main__
Cell
p781
(dp782
g4
I0
sba(i__main__
Cell
p783
(dp784
g4
I0
sba(i__main__
Cell
p785
(dp786
g4
I0
sba(i__main__
Cell
p787
(dp788
g4
I0
sba(i__main__
Cell
p789
(dp790
g4
I0
sba(i__main__
Cell
p791
(dp792
g4
I0
sba(i__main__
Cell
p793
(dp794
g4
I0
sbaa(lp795
(i__main__
Cell
p796
(dp797
g4
I0
sba(i__main__
Cell
p798
(dp799
g4
I0
sba(i__main__
Cell
p800
(dp801
g4
I0
sba(i__main__
Cell
p802
(dp803
g4
I0
sba(i__main__
Cell
p804
(dp805
g4
I0
sba(i__main__
Cell
p806
(dp807
g4
I0
sba(i__main__
Cell
p808
(dp809
g4
I0
sba(i__main__
Cell
p810
(dp811
g4
I0
sba(i__main__
Cell
p812
(dp813
g4
I0
sba(i__main__
Cell
p814
(dp815
g4
I0
sba(i__main__
Cell
p816
(dp817
g4
I0
sba(i__main__
Cell
p818
(dp819
g4
I0
sba(i__main__
Cell
p820
(dp821
g4
I1
sba(i__main__
Cell
p822
(dp823
g4
I0
sba(i__main__
Cell
p824
(dp825
g4
I0
sba(i__main__
Cell
p826
(dp827
g4
I0
sba(i__main__
Cell
p828
(dp829
g4
I0
sba(i__main__
Cell
p830
(dp831
g4
I0
sba(i__main__
Cell
p832
(dp833
g4
I0
sba(i__main__
Cell
p834
(dp835
g4
I0
sba(i__main__
Cell
p836
(dp837
g4
I0
sba(i__main__
Cell
p838
(dp839
g4
I0
sba(i__main__
Cell
p840
(dp841
g4
I0
sba(i__main__
Cell
p842
(dp843
g4
I0
sba(i__main__
Cell
p844
(dp845
g4
I0
sba(i__main__
Cell
p846
(dp847
g4
I0
sba(i__main__
Cell
p848
(dp849
g4
I0
sba(i__main__
Cell
p850
(dp851
g4
I0
sba(i__main__
Cell
p852
(dp853
g4
I0
sba(i__main__
Cell
p854
(dp855
g4
I0
sbaa(lp856
(i__main__
Cell
p857
(dp858
g4
I0
sba(i__main__
Cell
p859
(dp860
g4
I0
sba(i__main__
Cell
p861
(dp862
g4
I0
sba(i__main__
Cell
p863
(dp864
g4
I0
sba(i__main__
Cell
p865
(dp866
g4
I0
sba(i__main__
Cell
p867
(dp868
g4
I0
sba(i__main__
Cell
p869
(dp870
g4
I0
sba(i__main__
Cell
p871
(dp872
g4
I0
sba(i__main__
Cell
p873
(dp874
g4
I0
sba(i__main__
Cell
p875
(dp876
g4
I0
sba(i__main__
Cell
p877
(dp878
g4
I0
sba(i__main__
Cell
p879
(dp880
g4
I0
sba(i__main__
Cell
p881
(dp882
g4
I0
sba(i__main__
Cell
p883
(dp884
g4
I0
sba(i__main__
Cell
p885
(dp886
g4
I0
sba(i__main__
Cell
p887
(dp888
g4
I0
sba(i__main__
Cell
p889
(dp890
g4
I0
sba(i__main__
Cell
p891
(dp892
g4
I0
sba(i__main__
Cell
p893
(dp894
g4
I0
sba(i__main__
Cell
p895
(dp896
g4
I0
sba(i__main__
Cell
p897
(dp898
g4
I0
sba(i__main__
Cell
p899
(dp900
g4
I0
sba(i__main__
Cell
p901
(dp902
g4
I0
sba(i__main__
Cell
p903
(dp904
g4
I0
sba(i__main__
Cell
p905
(dp906
g4
I0
sba(i__main__
Cell
p907
(dp908
g4
I0
sba(i__main__
Cell
p909
(dp910
g4
I0
sba(i__main__
Cell
p911
(dp912
g4
I0
sba(i__main__
Cell
p913
(dp914
g4
I1
sba(i__main__
Cell
p915
(dp916
g4
I0
sbaa(lp917
(i__main__
Cell
p918
(dp919
g4
I0
sba(i__main__
Cell
p920
(dp921
g4
I0
sba(i__main__
Cell
p922
(dp923
g4
I0
sba(i__main__
Cell
p924
(dp925
g4
I0
sba(i__main__
Cell
p926
(dp927
g4
I0
sba(i__main__
Cell
p928
(dp929
g4
I0
sba(i__main__
Cell
p930
(dp931
g4
I0
sba(i__main__
Cell
p932
(dp933
g4
I0
sba(i__main__
Cell
p934
(dp935
g4
I0
sba(i__main__
Cell
p936
(dp937
g4
I0
sba(i__main__
Cell
p938
(dp939
g4
I0
sba(i__main__
Cell
p940
(dp941
g4
I0
sba(i__main__
Cell
p942
(dp943
g4
I0
sba(i__main__
Cell
p944
(dp945
g4
I0
sba(i__main__
Cell
p946
(dp947
g4
I0
sba(i__main__
Cell
p948
(dp949
g4
I0
sba(i__main__
Cell
p950
(dp951
g4
I0
sba(i__main__
Cell
p952
(dp953
g4
I0
sba(i__main__
Cell
p954
(dp955
g4
I1
sba(i__main__
Cell
p956
(dp957
g4
I0
sba(i__main__
Cell
p958
(dp959
g4
I0
sba(i__main__
Cell
p960
(dp961
g4
I0
sba(i__main__
Cell
p962
(dp963
g4
I0
sba(i__main__
Cell
p964
(dp965
g4
I0
sba(i__main__
Cell
p966
(dp967
g4
I0
sba(i__main__
Cell
p968
(dp969
g4
I0
sba(i__main__
Cell
p970
(dp971
g4
I1
sba(i__main__
Cell
p972
(dp973
g4
I0
sba(i__main__
Cell
p974
(dp975
g4
I0
sba(i__main__
Cell
p976
(dp977
g4
I0
sbaa(lp978
(i__main__
Cell
p979
(dp980
g4
I0
sba(i__main__
Cell
p981
(dp982
g4
I0
sba(i__main__
Cell
p983
(dp984
g4
I0
sba(i__main__
Cell
p985
(dp986
g4
I0
sba(i__main__
Cell
p987
(dp988
g4
I0
sba(i__main__
Cell
p989
(dp990
g4
I0
sba(i__main__
Cell
p991
(dp992
g4
I0
sba(i__main__
Cell
p993
(dp994
g4
I0
sba(i__main__
Cell
p995
(dp996
g4
I0
sba(i__main__
Cell
p997
(dp998
g4
I0
sba(i__main__
Cell
p999
(dp1000
g4
I0
sba(i__main__
Cell
p1001
(dp1002
g4
I0
sba(i__main__
Cell
p1003
(dp1004
g4
I0
sba(i__main__
Cell
p1005
(dp1006
g4
I0
sba(i__main__
Cell
p1007
(dp1008
g4
I0
sba(i__main__
Cell
p1009
(dp1010
g4
I0
sba(i__main__
Cell
p1011
(dp1012
g4
I0
sba(i__main__
Cell
p1013
(dp1014
g4
I0
sba(i__main__
Cell
p1015
(dp1016
g4
I0
sba(i__main__
Cell
p1017
(dp1018
g4
I0
sba(i__main__
Cell
p1019
(dp1020
g4
I1
sba(i__main__
Cell
p1021
(dp1022
g4
I0
sba(i__main__
Cell
p1023
(dp1024
g4
I0
sba(i__main__
Cell
p1025
(dp1026
g4
I0
sba(i__main__
Cell
p1027
(dp1028
g4
I1
sba(i__main__
Cell
p1029
(dp1030
g4
I0
sba(i__main__
Cell
p1031
(dp1032
g4
I0
sba(i__main__
Cell
p1033
(dp1034
g4
I0
sba(i__main__
Cell
p1035
(dp1036
g4
I0
sba(i__main__
Cell
p1037
(dp1038
g4
I0
sbaa(lp1039
(i__main__
Cell
p1040
(dp1041
g4
I0
sba(i__main__
Cell
p1042
(dp1043
g4
I0
sba(i__main__
Cell
p1044
(dp1045
g4
I0
sba(i__main__
Cell
p1046
(dp1047
g4
I0
sba(i__main__
Cell
p1048
(dp1049
g4
I0
sba(i__main__
Cell
p1050
(dp1051
g4
I0
sba(i__main__
Cell
p1052
(dp1053
g4
I0
sba(i__main__
Cell
p1054
(dp1055
g4
I0
sba(i__main__
Cell
p1056
(dp1057
g4
I0
sba(i__main__
Cell
p1058
(dp1059
g4
I0
sba(i__main__
Cell
p1060
(dp1061
g4
I0
sba(i__main__
Cell
p1062
(dp1063
g4
I0
sba(i__main__
Cell
p1064
(dp1065
g4
I0
sba(i__main__
Cell
p1066
(dp1067
g4
I0
sba(i__main__
Cell
p1068
(dp1069
g4
I0
sba(i__main__
Cell
p1070
(dp1071
g4
I0
sba(i__main__
Cell
p1072
(dp1073
g4
I0
sba(i__main__
Cell
p1074
(dp1075
g4
I0
sba(i__main__
Cell
p1076
(dp1077
g4
I0
sba(i__main__
Cell
p1078
(dp1079
g4
I0
sba(i__main__
Cell
p1080
(dp1081
g4
I0
sba(i__main__
Cell
p1082
(dp1083
g4
I0
sba(i__main__
Cell
p1084
(dp1085
g4
I1
sba(i__main__
Cell
p1086
(dp1087
g4
I0
sba(i__main__
Cell
p1088
(dp1089
g4
I0
sba(i__main__
Cell
p1090
(dp1091
g4
I0
sba(i__main__
Cell
p1092
(dp1093
g4
I0
sba(i__main__
Cell
p1094
(dp1095
g4
I0
sba(i__main__
Cell
p1096
(dp1097
g4
I0
sba(i__main__
Cell
p1098
(dp1099
g4
I0
sbaa(lp1100
(i__main__
Cell
p1101
(dp1102
g4
I0
sba(i__main__
Cell
p1103
(dp1104
g4
I0
sba(i__main__
Cell
p1105
(dp1106
g4
I0
sba(i__main__
Cell
p1107
(dp1108
g4
I0
sba(i__main__
Cell
p1109
(dp1110
g4
I0
sba(i__main__
Cell
p1111
(dp1112
g4
I0
sba(i__main__
Cell
p1113
(dp1114
g4
I0
sba(i__main__
Cell
p1115
(dp1116
g4
I0
sba(i__main__
Cell
p1117
(dp1118
g4
I0
sba(i__main__
Cell
p1119
(dp1120
g4
I0
sba(i__main__
Cell
p1121
(dp1122
g4
I0
sba(i__main__
Cell
p1123
(dp1124
g4
I0
sba(i__main__
Cell
p1125
(dp1126
g4
I0
sba(i__main__
Cell
p1127
(dp1128
g4
I0
sba(i__main__
Cell
p1129
(dp1130
g4
I0
sba(i__main__
Cell
p1131
(dp1132
g4
I0
sba(i__main__
Cell
p1133
(dp1134
g4
I0
sba(i__main__
Cell
p1135
(dp1136
g4
I0
sba(i__main__
Cell
p1137
(dp1138
g4
I0
sba(i__main__
Cell
p1139
(dp1140
g4
I0
sba(i__main__
Cell
p1141
(dp1142
g4
I0
sba(i__main__
Cell
p1143
(dp1144
g4
I0
sba(i__main__
Cell
p1145
(dp1146
g4
I0
sba(i__main__
Cell
p1147
(dp1148
g4
I0
sba(i__main__
Cell
p1149
(dp1150
g4
I0
sba(i__main__
Cell
p1151
(dp1152
g4
I0
sba(i__main__
Cell
p1153
(dp1154
g4
I0
sba(i__main__
Cell
p1155
(dp1156
g4
I0
sba(i__main__
Cell
p1157
(dp1158
g4
I0
sba(i__main__
Cell
p1159
(dp1160
g4
I0
sbaa(lp1161
(i__main__
Cell
p1162
(dp1163
g4
I0
sba(i__main__
Cell
p1164
(dp1165
g4
I0
sba(i__main__
Cell
p1166
(dp1167
g4
I0
sba(i__main__
Cell
p1168
(dp1169
g4
I0
sba(i__main__
Cell
p1170
(dp1171
g4
I0
sba(i__main__
Cell
p1172
(dp1173
g4
I0
sba(i__main__
Cell
p1174
(dp1175
g4
I0
sba(i__main__
Cell
p1176
(dp1177
g4
I0
sba(i__main__
Cell
p1178
(dp1179
g4
I0
sba(i__main__
Cell
p1180
(dp1181
g4
I0
sba(i__main__
Cell
p1182
(dp1183
g4
I0
sba(i__main__
Cell
p1184
(dp1185
g4
I0
sba(i__main__
Cell
p1186
(dp1187
g4
I0
sba(i__main__
Cell
p1188
(dp1189
g4
I0
sba(i__main__
Cell
p1190
(dp1191
g4
I0
sba(i__main__
Cell
p1192
(dp1193
g4
I0
sba(i__main__
Cell
p1194
(dp1195
g4
I0
sba(i__main__
Cell
p1196
(dp1197
g4
I0
sba(i__main__
Cell
p1198
(dp1199
g4
I0
sba(i__main__
Cell
p1200
(dp1201
g4
I0
sba(i__main__
Cell
p1202
(dp1203
g4
I0
sba(i__main__
Cell
p1204
(dp1205
g4
I0
sba(i__main__
Cell
p1206
(dp1207
g4
I0
sba(i__main__
Cell
p1208
(dp1209
g4
I0
sba(i__main__
Cell
p1210
(dp1211
g4
I0
sba(i__main__
Cell
p1212
(dp1213
g4
I0
sba(i__main__
Cell
p1214
(dp1215
g4
I0
sba(i__main__
Cell
p1216
(dp1217
g4
I0
sba(i__main__
Cell
p1218
(dp1219
g4
I0
sba(i__main__
Cell
p1220
(dp1221
g4
I0
sbaa(lp1222
(i__main__
Cell
p1223
(dp1224
g4
I0
sba(i__main__
Cell
p1225
(dp1226
g4
I0
sba(i__main__
Cell
p1227
(dp1228
g4
I0
sba(i__main__
Cell
p1229
(dp1230
g4
I0
sba(i__main__
Cell
p1231
(dp1232
g4
I0
sba(i__main__
Cell
p1233
(dp1234
g4
I0
sba(i__main__
Cell
p1235
(dp1236
g4
I0
sba(i__main__
Cell
p1237
(dp1238
g4
I0
sba(i__main__
Cell
p1239
(dp1240
g4
I0
sba(i__main__
Cell
p1241
(dp1242
g4
I0
sba(i__main__
Cell
p1243
(dp1244
g4
I0
sba(i__main__
Cell
p1245
(dp1246
g4
I0
sba(i__main__
Cell
p1247
(dp1248
g4
I0
sba(i__main__
Cell
p1249
(dp1250
g4
I0
sba(i__main__
Cell
p1251
(dp1252
g4
I0
sba(i__main__
Cell
p1253
(dp1254
g4
I0
sba(i__main__
Cell
p1255
(dp1256
g4
I0
sba(i__main__
Cell
p1257
(dp1258
g4
I0
sba(i__main__
Cell
p1259
(dp1260
g4
I0
sba(i__main__
Cell
p1261
(dp1262
g4
I0
sba(i__main__
Cell
p1263
(dp1264
g4
I0
sba(i__main__
Cell
p1265
(dp1266
g4
I0
sba(i__main__
Cell
p1267
(dp1268
g4
I0
sba(i__main__
Cell
p1269
(dp1270
g4
I0
sba(i__main__
Cell
p1271
(dp1272
g4
I0
sba(i__main__
Cell
p1273
(dp1274
g4
I0
sba(i__main__
Cell
p1275
(dp1276
g4
I0
sba(i__main__
Cell
p1277
(dp1278
g4
I0
sba(i__main__
Cell
p1279
(dp1280
g4
I0
sba(i__main__
Cell
p1281
(dp1282
g4
I0
sbaa(lp1283
(i__main__
Cell
p1284
(dp1285
g4
I0
sba(i__main__
Cell
p1286
(dp1287
g4
I0
sba(i__main__
Cell
p1288
(dp1289
g4
I0
sba(i__main__
Cell
p1290
(dp1291
g4
I0
sba(i__main__
Cell
p1292
(dp1293
g4
I0
sba(i__main__
Cell
p1294
(dp1295
g4
I0
sba(i__main__
Cell
p1296
(dp1297
g4
I0
sba(i__main__
Cell
p1298
(dp1299
g4
I0
sba(i__main__
Cell
p1300
(dp1301
g4
I0
sba(i__main__
Cell
p1302
(dp1303
g4
I0
sba(i__main__
Cell
p1304
(dp1305
g4
I0
sba(i__main__
Cell
p1306
(dp1307
g4
I0
sba(i__main__
Cell
p1308
(dp1309
g4
I0
sba(i__main__
Cell
p1310
(dp1311
g4
I0
sba(i__main__
Cell
p1312
(dp1313
g4
I0
sba(i__main__
Cell
p1314
(dp1315
g4
I0
sba(i__main__
Cell
p1316
(dp1317
g4
I0
sba(i__main__
Cell
p1318
(dp1319
g4
I0
sba(i__main__
Cell
p1320
(dp1321
g4
I0
sba(i__main__
Cell
p1322
(dp1323
g4
I0
sba(i__main__
Cell
p1324
(dp1325
g4
I0
sba(i__main__
Cell
p1326
(dp1327
g4
I0
sba(i__main__
Cell
p1328
(dp1329
g4
I0
sba(i__main__
Cell
p1330
(dp1331
g4
I0
sba(i__main__
Cell
p1332
(dp1333
g4
I0
sba(i__main__
Cell
p1334
(dp1335
g4
I0
sba(i__main__
Cell
p1336
(dp1337
g4
I0
sba(i__main__
Cell
p1338
(dp1339
g4
I0
sba(i__main__
Cell
p1340
(dp1341
g4
I0
sba(i__main__
Cell
p1342
(dp1343
g4
I0
sbaa(lp1344
(i__main__
Cell
p1345
(dp1346
g4
I0
sba(i__main__
Cell
p1347
(dp1348
g4
I0
sba(i__main__
Cell
p1349
(dp1350
g4
I0
sba(i__main__
Cell
p1351
(dp1352
g4
I0
sba(i__main__
Cell
p1353
(dp1354
g4
I0
sba(i__main__
Cell
p1355
(dp1356
g4
I0
sba(i__main__
Cell
p1357
(dp1358
g4
I0
sba(i__main__
Cell
p1359
(dp1360
g4
I0
sba(i__main__
Cell
p1361
(dp1362
g4
I0
sba(i__main__
Cell
p1363
(dp1364
g4
I0
sba(i__main__
Cell
p1365
(dp1366
g4
I0
sba(i__main__
Cell
p1367
(dp1368
g4
I0
sba(i__main__
Cell
p1369
(dp1370
g4
I0
sba(i__main__
Cell
p1371
(dp1372
g4
I0
sba(i__main__
Cell
p1373
(dp1374
g4
I0
sba(i__main__
Cell
p1375
(dp1376
g4
I0
sba(i__main__
Cell
p1377
(dp1378
g4
I0
sba(i__main__
Cell
p1379
(dp1380
g4
I0
sba(i__main__
Cell
p1381
(dp1382
g4
I0
sba(i__main__
Cell
p1383
(dp1384
g4
I0
sba(i__main__
Cell
p1385
(dp1386
g4
I0
sba(i__main__
Cell
p1387
(dp1388
g4
I0
sba(i__main__
Cell
p1389
(dp1390
g4
I0
sba(i__main__
Cell
p1391
(dp1392
g4
I0
sba(i__main__
Cell
p1393
(dp1394
g4
I0
sba(i__main__
Cell
p1395
(dp1396
g4
I0
sba(i__main__
Cell
p1397
(dp1398
g4
I0
sba(i__main__
Cell
p1399
(dp1400
g4
I0
sba(i__main__
Cell
p1401
(dp1402
g4
I0
sba(i__main__
Cell
p1403
(dp1404
g4
I0
sbaa(lp1405
(i__main__
Cell
p1406
(dp1407
g4
I0
sba(i__main__
Cell
p1408
(dp1409
g4
I0
sba(i__main__
Cell
p1410
(dp1411
g4
I0
sba(i__main__
Cell
p1412
(dp1413
g4
I0
sba(i__main__
Cell
p1414
(dp1415
g4
I0
sba(i__main__
Cell
p1416
(dp1417
g4
I0
sba(i__main__
Cell
p1418
(dp1419
g4
I0
sba(i__main__
Cell
p1420
(dp1421
g4
I0
sba(i__main__
Cell
p1422
(dp1423
g4
I0
sba(i__main__
Cell
p1424
(dp1425
g4
I0
sba(i__main__
Cell
p1426
(dp1427
g4
I0
sba(i__main__
Cell
p1428
(dp1429
g4
I0
sba(i__main__
Cell
p1430
(dp1431
g4
I0
sba(i__main__
Cell
p1432
(dp1433
g4
I0
sba(i__main__
Cell
p1434
(dp1435
g4
I0
sba(i__main__
Cell
p1436
(dp1437
g4
I0
sba(i__main__
Cell
p1438
(dp1439
g4
I0
sba(i__main__
Cell
p1440
(dp1441
g4
I0
sba(i__main__
Cell
p1442
(dp1443
g4
I0
sba(i__main__
Cell
p1444
(dp1445
g4
I0
sba(i__main__
Cell
p1446
(dp1447
g4
I0
sba(i__main__
Cell
p1448
(dp1449
g4
I0
sba(i__main__
Cell
p1450
(dp1451
g4
I0
sba(i__main__
Cell
p1452
(dp1453
g4
I0
sba(i__main__
Cell
p1454
(dp1455
g4
I0
sba(i__main__
Cell
p1456
(dp1457
g4
I0
sba(i__main__
Cell
p1458
(dp1459
g4
I0
sba(i__main__
Cell
p1460
(dp1461
g4
I0
sba(i__main__
Cell
p1462
(dp1463
g4
I0
sba(i__main__
Cell
p1464
(dp1465
g4
I0
sbaa(lp1466
(i__main__
Cell
p1467
(dp1468
g4
I0
sba(i__main__
Cell
p1469
(dp1470
g4
I0
sba(i__main__
Cell
p1471
(dp1472
g4
I0
sba(i__main__
Cell
p1473
(dp1474
g4
I0
sba(i__main__
Cell
p1475
(dp1476
g4
I0
sba(i__main__
Cell
p1477
(dp1478
g4
I0
sba(i__main__
Cell
p1479
(dp1480
g4
I0
sba(i__main__
Cell
p1481
(dp1482
g4
I0
sba(i__main__
Cell
p1483
(dp1484
g4
I0
sba(i__main__
Cell
p1485
(dp1486
g4
I0
sba(i__main__
Cell
p1487
(dp1488
g4
I0
sba(i__main__
Cell
p1489
(dp1490
g4
I0
sba(i__main__
Cell
p1491
(dp1492
g4
I0
sba(i__main__
Cell
p1493
(dp1494
g4
I0
sba(i__main__
Cell
p1495
(dp1496
g4
I0
sba(i__main__
Cell
p1497
(dp1498
g4
I0
sba(i__main__
Cell
p1499
(dp1500
g4
I0
sba(i__main__
Cell
p1501
(dp1502
g4
I0
sba(i__main__
Cell
p1503
(dp1504
g4
I0
sba(i__main__
Cell
p1505
(dp1506
g4
I0
sba(i__main__
Cell
p1507
(dp1508
g4
I0
sba(i__main__
Cell
p1509
(dp1510
g4
I0
sba(i__main__
Cell
p1511
(dp1512
g4
I0
sba(i__main__
Cell
p1513
(dp1514
g4
I0
sba(i__main__
Cell
p1515
(dp1516
g4
I0
sba(i__main__
Cell
p1517
(dp1518
g4
I0
sba(i__main__
Cell
p1519
(dp1520
g4
I0
sba(i__main__
Cell
p1521
(dp1522
g4
I0
sba(i__main__
Cell
p1523
(dp1524
g4
I0
sba(i__main__
Cell
p1525
(dp1526
g4
I0
sbaa(lp1527
(i__main__
Cell
p1528
(dp1529
g4
I0
sba(i__main__
Cell
p1530
(dp1531
g4
I0
sba(i__main__
Cell
p1532
(dp1533
g4
I0
sba(i__main__
Cell
p1534
(dp1535
g4
I0
sba(i__main__
Cell
p1536
(dp1537
g4
I0
sba(i__main__
Cell
p1538
(dp1539
g4
I0
sba(i__main__
Cell
p1540
(dp1541
g4
I0
sba(i__main__
Cell
p1542
(dp1543
g4
I0
sba(i__main__
Cell
p1544
(dp1545
g4
I0
sba(i__main__
Cell
p1546
(dp1547
g4
I0
sba(i__main__
Cell
p1548
(dp1549
g4
I0
sba(i__main__
Cell
p1550
(dp1551
g4
I0
sba(i__main__
Cell
p1552
(dp1553
g4
I0
sba(i__main__
Cell
p1554
(dp1555
g4
I0
sba(i__main__
Cell
p1556
(dp1557
g4
I0
sba(i__main__
Cell
p1558
(dp1559
g4
I0
sba(i__main__
Cell
p1560
(dp1561
g4
I0
sba(i__main__
Cell
p1562
(dp1563
g4
I0
sba(i__main__
Cell
p1564
(dp1565
g4
I0
sba(i__main__
Cell
p1566
(dp1567
g4
I0
sba(i__main__
Cell
p1568
(dp1569
g4
I0
sba(i__main__
Cell
p1570
(dp1571
g4
I0
sba(i__main__
Cell
p1572
(dp1573
g4
I0
sba(i__main__
Cell
p1574
(dp1575
g4
I0
sba(i__main__
Cell
p1576
(dp1577
g4
I0
sba(i__main__
Cell
p1578
(dp1579
g4
I0
sba(i__main__
Cell
p1580
(dp1581
g4
I0
sba(i__main__
Cell
p1582
(dp1583
g4
I0
sba(i__main__
Cell
p1584
(dp1585
g4
I0
sba(i__main__
Cell
p1586
(dp1587
g4
I0
sbaa(lp1588
(i__main__
Cell
p1589
(dp1590
g4
I0
sba(i__main__
Cell
p1591
(dp1592
g4
I0
sba(i__main__
Cell
p1593
(dp1594
g4
I0
sba(i__main__
Cell
p1595
(dp1596
g4
I0
sba(i__main__
Cell
p1597
(dp1598
g4
I0
sba(i__main__
Cell
p1599
(dp1600
g4
I0
sba(i__main__
Cell
p1601
(dp1602
g4
I0
sba(i__main__
Cell
p1603
(dp1604
g4
I0
sba(i__main__
Cell
p1605
(dp1606
g4
I0
sba(i__main__
Cell
p1607
(dp1608
g4
I0
sba(i__main__
Cell
p1609
(dp1610
g4
I0
sba(i__main__
Cell
p1611
(dp1612
g4
I0
sba(i__main__
Cell
p1613
(dp1614
g4
I0
sba(i__main__
Cell
p1615
(dp1616
g4
I0
sba(i__main__
Cell
p1617
(dp1618
g4
I0
sba(i__main__
Cell
p1619
(dp1620
g4
I0
sba(i__main__
Cell
p1621
(dp1622
g4
I0
sba(i__main__
Cell
p1623
(dp1624
g4
I0
sba(i__main__
Cell
p1625
(dp1626
g4
I0
sba(i__main__
Cell
p1627
(dp1628
g4
I0
sba(i__main__
Cell
p1629
(dp1630
g4
I0
sba(i__main__
Cell
p1631
(dp1632
g4
I0
sba(i__main__
Cell
p1633
(dp1634
g4
I0
sba(i__main__
Cell
p1635
(dp1636
g4
I0
sba(i__main__
Cell
p1637
(dp1638
g4
I0
sba(i__main__
Cell
p1639
(dp1640
g4
I0
sba(i__main__
Cell
p1641
(dp1642
g4
I0
sba(i__main__
Cell
p1643
(dp1644
g4
I0
sba(i__main__
Cell
p1645
(dp1646
g4
I0
sba(i__main__
Cell
p1647
(dp1648
g4
I0
sbaa(lp1649
(i__main__
Cell
p1650
(dp1651
g4
I0
sba(i__main__
Cell
p1652
(dp1653
g4
I0
sba(i__main__
Cell
p1654
(dp1655
g4
I0
sba(i__main__
Cell
p1656
(dp1657
g4
I0
sba(i__main__
Cell
p1658
(dp1659
g4
I0
sba(i__main__
Cell
p1660
(dp1661
g4
I0
sba(i__main__
Cell
p1662
(dp1663
g4
I0
sba(i__main__
Cell
p1664
(dp1665
g4
I0
sba(i__main__
Cell
p1666
(dp1667
g4
I0
sba(i__main__
Cell
p1668
(dp1669
g4
I1
sba(i__main__
Cell
p1670
(dp1671
g4
I0
sba(i__main__
Cell
p1672
(dp1673
g4
I0
sba(i__main__
Cell
p1674
(dp1675
g4
I0
sba(i__main__
Cell
p1676
(dp1677
g4
I0
sba(i__main__
Cell
p1678
(dp1679
g4
I0
sba(i__main__
Cell
p1680
(dp1681
g4
I0
sba(i__main__
Cell
p1682
(dp1683
g4
I0
sba(i__main__
Cell
p1684
(dp1685
g4
I0
sba(i__main__
Cell
p1686
(dp1687
g4
I0
sba(i__main__
Cell
p1688
(dp1689
g4
I0
sba(i__main__
Cell
p1690
(dp1691
g4
I0
sba(i__main__
Cell
p1692
(dp1693
g4
I0
sba(i__main__
Cell
p1694
(dp1695
g4
I0
sba(i__main__
Cell
p1696
(dp1697
g4
I0
sba(i__main__
Cell
p1698
(dp1699
g4
I0
sba(i__main__
Cell
p1700
(dp1701
g4
I0
sba(i__main__
Cell
p1702
(dp1703
g4
I0
sba(i__main__
Cell
p1704
(dp1705
g4
I0
sba(i__main__
Cell
p1706
(dp1707
g4
I0
sba(i__main__
Cell
p1708
(dp1709
g4
I0
sbaa(lp1710
(i__main__
Cell
p1711
(dp1712
g4
I0
sba(i__main__
Cell
p1713
(dp1714
g4
I0
sba(i__main__
Cell
p1715
(dp1716
g4
I0
sba(i__main__
Cell
p1717
(dp1718
g4
I0
sba(i__main__
Cell
p1719
(dp1720
g4
I0
sba(i__main__
Cell
p1721
(dp1722
g4
I0
sba(i__main__
Cell
p1723
(dp1724
g4
I0
sba(i__main__
Cell
p1725
(dp1726
g4
I0
sba(i__main__
Cell
p1727
(dp1728
g4
I0
sba(i__main__
Cell
p1729
(dp1730
g4
I1
sba(i__main__
Cell
p1731
(dp1732
g4
I0
sba(i__main__
Cell
p1733
(dp1734
g4
I0
sba(i__main__
Cell
p1735
(dp1736
g4
I0
sba(i__main__
Cell
p1737
(dp1738
g4
I0
sba(i__main__
Cell
p1739
(dp1740
g4
I0
sba(i__main__
Cell
p1741
(dp1742
g4
I0
sba(i__main__
Cell
p1743
(dp1744
g4
I0
sba(i__main__
Cell
p1745
(dp1746
g4
I0
sba(i__main__
Cell
p1747
(dp1748
g4
I0
sba(i__main__
Cell
p1749
(dp1750
g4
I0
sba(i__main__
Cell
p1751
(dp1752
g4
I0
sba(i__main__
Cell
p1753
(dp1754
g4
I0
sba(i__main__
Cell
p1755
(dp1756
g4
I0
sba(i__main__
Cell
p1757
(dp1758
g4
I0
sba(i__main__
Cell
p1759
(dp1760
g4
I0
sba(i__main__
Cell
p1761
(dp1762
g4
I0
sba(i__main__
Cell
p1763
(dp1764
g4
I0
sba(i__main__
Cell
p1765
(dp1766
g4
I0
sba(i__main__
Cell
p1767
(dp1768
g4
I0
sba(i__main__
Cell
p1769
(dp1770
g4
I0
sbaa(lp1771
(i__main__
Cell
p1772
(dp1773
g4
I0
sba(i__main__
Cell
p1774
(dp1775
g4
I0
sba(i__main__
Cell
p1776
(dp1777
g4
I0
sba(i__main__
Cell
p1778
(dp1779
g4
I0
sba(i__main__
Cell
p1780
(dp1781
g4
I0
sba(i__main__
Cell
p1782
(dp1783
g4
I0
sba(i__main__
Cell
p1784
(dp1785
g4
I0
sba(i__main__
Cell
p1786
(dp1787
g4
I0
sba(i__main__
Cell
p1788
(dp1789
g4
I0
sba(i__main__
Cell
p1790
(dp1791
g4
I0
sba(i__main__
Cell
p1792
(dp1793
g4
I0
sba(i__main__
Cell
p1794
(dp1795
g4
I0
sba(i__main__
Cell
p1796
(dp1797
g4
I0
sba(i__main__
Cell
p1798
(dp1799
g4
I0
sba(i__main__
Cell
p1800
(dp1801
g4
I0
sba(i__main__
Cell
p1802
(dp1803
g4
I0
sba(i__main__
Cell
p1804
(dp1805
g4
I0
sba(i__main__
Cell
p1806
(dp1807
g4
I0
sba(i__main__
Cell
p1808
(dp1809
g4
I0
sba(i__main__
Cell
p1810
(dp1811
g4
I0
sba(i__main__
Cell
p1812
(dp1813
g4
I0
sba(i__main__
Cell
p1814
(dp1815
g4
I0
sba(i__main__
Cell
p1816
(dp1817
g4
I0
sba(i__main__
Cell
p1818
(dp1819
g4
I0
sba(i__main__
Cell
p1820
(dp1821
g4
I0
sba(i__main__
Cell
p1822
(dp1823
g4
I0
sba(i__main__
Cell
p1824
(dp1825
g4
I0
sba(i__main__
Cell
p1826
(dp1827
g4
I0
sba(i__main__
Cell
p1828
(dp1829
g4
I0
sba(i__main__
Cell
p1830
(dp1831
g4
I0
sbaa(lp1832
(i__main__
Cell
p1833
(dp1834
g4
I0
sba(i__main__
Cell
p1835
(dp1836
g4
I0
sba(i__main__
Cell
p1837
(dp1838
g4
I0
sba(i__main__
Cell
p1839
(dp1840
g4
I0
sba(i__main__
Cell
p1841
(dp1842
g4
I0
sba(i__main__
Cell
p1843
(dp1844
g4
I0
sba(i__main__
Cell
p1845
(dp1846
g4
I0
sba(i__main__
Cell
p1847
(dp1848
g4
I0
sba(i__main__
Cell
p1849
(dp1850
g4
I0
sba(i__main__
Cell
p1851
(dp1852
g4
I0
sba(i__main__
Cell
p1853
(dp1854
g4
I0
sba(i__main__
Cell
p1855
(dp1856
g4
I0
sba(i__main__
Cell
p1857
(dp1858
g4
I0
sba(i__main__
Cell
p1859
(dp1860
g4
I0
sba(i__main__
Cell
p1861
(dp1862
g4
I0
sba(i__main__
Cell
p1863
(dp1864
g4
I0
sba(i__main__
Cell
p1865
(dp1866
g4
I0
sba(i__main__
Cell
p1867
(dp1868
g4
I0
sba(i__main__
Cell
p1869
(dp1870
g4
I0
sba(i__main__
Cell
p1871
(dp1872
g4
I0
sba(i__main__
Cell
p1873
(dp1874
g4
I2
sba(i__main__
Cell
p1875
(dp1876
g4
I2
sba(i__main__
Cell
p1877
(dp1878
g4
I2
sba(i__main__
Cell
p1879
(dp1880
g4
I2
sba(i__main__
Cell
p1881
(dp1882
g4
I2
sba(i__main__
Cell
p1883
(dp1884
g4
I2
sba(i__main__
Cell
p1885
(dp1886
g4
I2
sba(i__main__
Cell
p1887
(dp1888
g4
I2
sba(i__main__
Cell
p1889
(dp1890
g4
I2
sba(i__main__
Cell
p1891
(dp1892
g4
I2
sbaa(lp1893
(i__main__
Cell
p1894
(dp1895
g4
I0
sba(i__main__
Cell
p1896
(dp1897
g4
I0
sba(i__main__
Cell
p1898
(dp1899
g4
I0
sba(i__main__
Cell
p1900
(dp1901
g4
I0
sba(i__main__
Cell
p1902
(dp1903
g4
I0
sba(i__main__
Cell
p1904
(dp1905
g4
I0
sba(i__main__
Cell
p1906
(dp1907
g4
I0
sba(i__main__
Cell
p1908
(dp1909
g4
I0
sba(i__main__
Cell
p1910
(dp1911
g4
I0
sba(i__main__
Cell
p1912
(dp1913
g4
I0
sba(i__main__
Cell
p1914
(dp1915
g4
I0
sba(i__main__
Cell
p1916
(dp1917
g4
I0
sba(i__main__
Cell
p1918
(dp1919
g4
I0
sba(i__main__
Cell
p1920
(dp1921
g4
I0
sba(i__main__
Cell
p1922
(dp1923
g4
I0
sba(i__main__
Cell
p1924
(dp1925
g4
I0
sba(i__main__
Cell
p1926
(dp1927
g4
I0
sba(i__main__
Cell
p1928
(dp1929
g4
I0
sba(i__main__
Cell
p1930
(dp1931
g4
I0
sba(i__main__
Cell
p1932
(dp1933
g4
I0
sba(i__main__
Cell
p1934
(dp1935
g4
I2
sba(i__main__
Cell
p1936
(dp1937
g4
I2
sba(i__main__
Cell
p1938
(dp1939
g4
I2
sba(i__main__
Cell
p1940
(dp1941
g4
I2
sba(i__main__
Cell
p1942
(dp1943
g4
I2
sba(i__main__
Cell
p1944
(dp1945
g4
I2
sba(i__main__
Cell
p1946
(dp1947
g4
I2
sba(i__main__
Cell
p1948
(dp1949
g4
I2
sba(i__main__
Cell
p1950
(dp1951
g4
I2
sba(i__main__
Cell
p1952
(dp1953
g4
I2
sbaa(lp1954
(i__main__
Cell
p1955
(dp1956
g4
I0
sba(i__main__
Cell
p1957
(dp1958
g4
I0
sba(i__main__
Cell
p1959
(dp1960
g4
I0
sba(i__main__
Cell
p1961
(dp1962
g4
I0
sba(i__main__
Cell
p1963
(dp1964
g4
I0
sba(i__main__
Cell
p1965
(dp1966
g4
I0
sba(i__main__
Cell
p1967
(dp1968
g4
I0
sba(i__main__
Cell
p1969
(dp1970
g4
I0
sba(i__main__
Cell
p1971
(dp1972
g4
I0
sba(i__main__
Cell
p1973
(dp1974
g4
I0
sba(i__main__
Cell
p1975
(dp1976
g4
I0
sba(i__main__
Cell
p1977
(dp1978
g4
I0
sba(i__main__
Cell
p1979
(dp1980
g4
I0
sba(i__main__
Cell
p1981
(dp1982
g4
I0
sba(i__main__
Cell
p1983
(dp1984
g4
I0
sba(i__main__
Cell
p1985
(dp1986
g4
I0
sba(i__main__
Cell
p1987
(dp1988
g4
I0
sba(i__main__
Cell
p1989
(dp1990
g4
I0
sba(i__main__
Cell
p1991
(dp1992
g4
I0
sba(i__main__
Cell
p1993
(dp1994
g4
I0
sba(i__main__
Cell
p1995
(dp1996
g4
I2
sba(i__main__
Cell
p1997
(dp1998
g4
I2
sba(i__main__
Cell
p1999
(dp2000
g4
I2
sba(i__main__
Cell
p2001
(dp2002
g4
I2
sba(i__main__
Cell
p2003
(dp2004
g4
I2
sba(i__main__
Cell
p2005
(dp2006
g4
I2
sba(i__main__
Cell
p2007
(dp2008
g4
I2
sba(i__main__
Cell
p2009
(dp2010
g4
I2
sba(i__main__
Cell
p2011
(dp2012
g4
I2
sba(i__main__
Cell
p2013
(dp2014
g4
I2
sbaa(lp2015
(i__main__
Cell
p2016
(dp2017
g4
I0
sba(i__main__
Cell
p2018
(dp2019
g4
I0
sba(i__main__
Cell
p2020
(dp2021
g4
I0
sba(i__main__
Cell
p2022
(dp2023
g4
I0
sba(i__main__
Cell
p2024
(dp2025
g4
I0
sba(i__main__
Cell
p2026
(dp2027
g4
I0
sba(i__main__
Cell
p2028
(dp2029
g4
I0
sba(i__main__
Cell
p2030
(dp2031
g4
I0
sba(i__main__
Cell
p2032
(dp2033
g4
I0
sba(i__main__
Cell
p2034
(dp2035
g4
I0
sba(i__main__
Cell
p2036
(dp2037
g4
I0
sba(i__main__
Cell
p2038
(dp2039
g4
I0
sba(i__main__
Cell
p2040
(dp2041
g4
I0
sba(i__main__
Cell
p2042
(dp2043
g4
I0
sba(i__main__
Cell
p2044
(dp2045
g4
I0
sba(i__main__
Cell
p2046
(dp2047
g4
I0
sba(i__main__
Cell
p2048
(dp2049
g4
I0
sba(i__main__
Cell
p2050
(dp2051
g4
I0
sba(i__main__
Cell
p2052
(dp2053
g4
I0
sba(i__main__
Cell
p2054
(dp2055
g4
I0
sba(i__main__
Cell
p2056
(dp2057
g4
I2
sba(i__main__
Cell
p2058
(dp2059
g4
I2
sba(i__main__
Cell
p2060
(dp2061
g4
I2
sba(i__main__
Cell
p2062
(dp2063
g4
I2
sba(i__main__
Cell
p2064
(dp2065
g4
I2
sba(i__main__
Cell
p2066
(dp2067
g4
I2
sba(i__main__
Cell
p2068
(dp2069
g4
I2
sba(i__main__
Cell
p2070
(dp2071
g4
I2
sba(i__main__
Cell
p2072
(dp2073
g4
I2
sba(i__main__
Cell
p2074
(dp2075
g4
I2
sbaa(lp2076
(i__main__
Cell
p2077
(dp2078
g4
I0
sba(i__main__
Cell
p2079
(dp2080
g4
I0
sba(i__main__
Cell
p2081
(dp2082
g4
I0
sba(i__main__
Cell
p2083
(dp2084
g4
I0
sba(i__main__
Cell
p2085
(dp2086
g4
I0
sba(i__main__
Cell
p2087
(dp2088
g4
I0
sba(i__main__
Cell
p2089
(dp2090
g4
I0
sba(i__main__
Cell
p2091
(dp2092
g4
I0
sba(i__main__
Cell
p2093
(dp2094
g4
I0
sba(i__main__
Cell
p2095
(dp2096
g4
I0
sba(i__main__
Cell
p2097
(dp2098
g4
I0
sba(i__main__
Cell
p2099
(dp2100
g4
I0
sba(i__main__
Cell
p2101
(dp2102
g4
I0
sba(i__main__
Cell
p2103
(dp2104
g4
I0
sba(i__main__
Cell
p2105
(dp2106
g4
I0
sba(i__main__
Cell
p2107
(dp2108
g4
I0
sba(i__main__
Cell
p2109
(dp2110
g4
I0
sba(i__main__
Cell
p2111
(dp2112
g4
I0
sba(i__main__
Cell
p2113
(dp2114
g4
I0
sba(i__main__
Cell
p2115
(dp2116
g4
I0
sba(i__main__
Cell
p2117
(dp2118
g4
I2
sba(i__main__
Cell
p2119
(dp2120
g4
I2
sba(i__main__
Cell
p2121
(dp2122
g4
I2
sba(i__main__
Cell
p2123
(dp2124
g4
I2
sba(i__main__
Cell
p2125
(dp2126
g4
I2
sba(i__main__
Cell
p2127
(dp2128
g4
I2
sba(i__main__
Cell
p2129
(dp2130
g4
I2
sba(i__main__
Cell
p2131
(dp2132
g4
I2
sba(i__main__
Cell
p2133
(dp2134
g4
I2
sba(i__main__
Cell
p2135
(dp2136
g4
I2
sbaa(lp2137
(i__main__
Cell
p2138
(dp2139
g4
I0
sba(i__main__
Cell
p2140
(dp2141
g4
I0
sba(i__main__
Cell
p2142
(dp2143
g4
I0
sba(i__main__
Cell
p2144
(dp2145
g4
I0
sba(i__main__
Cell
p2146
(dp2147
g4
I0
sba(i__main__
Cell
p2148
(dp2149
g4
I0
sba(i__main__
Cell
p2150
(dp2151
g4
I0
sba(i__main__
Cell
p2152
(dp2153
g4
I0
sba(i__main__
Cell
p2154
(dp2155
g4
I0
sba(i__main__
Cell
p2156
(dp2157
g4
I0
sba(i__main__
Cell
p2158
(dp2159
g4
I0
sba(i__main__
Cell
p2160
(dp2161
g4
I0
sba(i__main__
Cell
p2162
(dp2163
g4
I0
sba(i__main__
Cell
p2164
(dp2165
g4
I0
sba(i__main__
Cell
p2166
(dp2167
g4
I0
sba(i__main__
Cell
p2168
(dp2169
g4
I0
sba(i__main__
Cell
p2170
(dp2171
g4
I0
sba(i__main__
Cell
p2172
(dp2173
g4
I0
sba(i__main__
Cell
p2174
(dp2175
g4
I0
sba(i__main__
Cell
p2176
(dp2177
g4
I0
sba(i__main__
Cell
p2178
(dp2179
g4
I2
sba(i__main__
Cell
p2180
(dp2181
g4
I2
sba(i__main__
Cell
p2182
(dp2183
g4
I2
sba(i__main__
Cell
p2184
(dp2185
g4
I2
sba(i__main__
Cell
p2186
(dp2187
g4
I2
sba(i__main__
Cell
p2188
(dp2189
g4
I2
sba(i__main__
Cell
p2190
(dp2191
g4
I2
sba(i__main__
Cell
p2192
(dp2193
g4
I2
sba(i__main__
Cell
p2194
(dp2195
g4
I2
sba(i__main__
Cell
p2196
(dp2197
g4
I2
sbaa(lp2198
(i__main__
Cell
p2199
(dp2200
g4
I0
sba(i__main__
Cell
p2201
(dp2202
g4
I0
sba(i__main__
Cell
p2203
(dp2204
g4
I0
sba(i__main__
Cell
p2205
(dp2206
g4
I0
sba(i__main__
Cell
p2207
(dp2208
g4
I0
sba(i__main__
Cell
p2209
(dp2210
g4
I0
sba(i__main__
Cell
p2211
(dp2212
g4
I0
sba(i__main__
Cell
p2213
(dp2214
g4
I0
sba(i__main__
Cell
p2215
(dp2216
g4
I0
sba(i__main__
Cell
p2217
(dp2218
g4
I0
sba(i__main__
Cell
p2219
(dp2220
g4
I0
sba(i__main__
Cell
p2221
(dp2222
g4
I0
sba(i__main__
Cell
p2223
(dp2224
g4
I0
sba(i__main__
Cell
p2225
(dp2226
g4
I0
sba(i__main__
Cell
p2227
(dp2228
g4
I0
sba(i__main__
Cell
p2229
(dp2230
g4
I0
sba(i__main__
Cell
p2231
(dp2232
g4
I0
sba(i__main__
Cell
p2233
(dp2234
g4
I0
sba(i__main__
Cell
p2235
(dp2236
g4
I0
sba(i__main__
Cell
p2237
(dp2238
g4
I0
sba(i__main__
Cell
p2239
(dp2240
g4
I2
sba(i__main__
Cell
p2241
(dp2242
g4
I2
sba(i__main__
Cell
p2243
(dp2244
g4
I2
sba(i__main__
Cell
p2245
(dp2246
g4
I2
sba(i__main__
Cell
p2247
(dp2248
g4
I2
sba(i__main__
Cell
p2249
(dp2250
g4
I2
sba(i__main__
Cell
p2251
(dp2252
g4
I2
sba(i__main__
Cell
p2253
(dp2254
g4
I2
sba(i__main__
Cell
p2255
(dp2256
g4
I2
sba(i__main__
Cell
p2257
(dp2258
g4
I2
sbaa(lp2259
(i__main__
Cell
p2260
(dp2261
g4
I0
sba(i__main__
Cell
p2262
(dp2263
g4
I0
sba(i__main__
Cell
p2264
(dp2265
g4
I0
sba(i__main__
Cell
p2266
(dp2267
g4
I0
sba(i__main__
Cell
p2268
(dp2269
g4
I0
sba(i__main__
Cell
p2270
(dp2271
g4
I0
sba(i__main__
Cell
p2272
(dp2273
g4
I0
sba(i__main__
Cell
p2274
(dp2275
g4
I0
sba(i__main__
Cell
p2276
(dp2277
g4
I0
sba(i__main__
Cell
p2278
(dp2279
g4
I0
sba(i__main__
Cell
p2280
(dp2281
g4
I0
sba(i__main__
Cell
p2282
(dp2283
g4
I0
sba(i__main__
Cell
p2284
(dp2285
g4
I0
sba(i__main__
Cell
p2286
(dp2287
g4
I0
sba(i__main__
Cell
p2288
(dp2289
g4
I0
sba(i__main__
Cell
p2290
(dp2291
g4
I0
sba(i__main__
Cell
p2292
(dp2293
g4
I0
sba(i__main__
Cell
p2294
(dp2295
g4
I0
sba(i__main__
Cell
p2296
(dp2297
g4
I0
sba(i__main__
Cell
p2298
(dp2299
g4
I0
sba(i__main__
Cell
p2300
(dp2301
g4
I2
sba(i__main__
Cell
p2302
(dp2303
g4
I2
sba(i__main__
Cell
p2304
(dp2305
g4
I2
sba(i__main__
Cell
p2306
(dp2307
g4
I2
sba(i__main__
Cell
p2308
(dp2309
g4
I2
sba(i__main__
Cell
p2310
(dp2311
g4
I2
sba(i__main__
Cell
p2312
(dp2313
g4
I2
sba(i__main__
Cell
p2314
(dp2315
g4
I2
sba(i__main__
Cell
p2316
(dp2317
g4
I2
sba(i__main__
Cell
p2318
(dp2319
g4
I2
sbaa(lp2320
(i__main__
Cell
p2321
(dp2322
g4
I0
sba(i__main__
Cell
p2323
(dp2324
g4
I0
sba(i__main__
Cell
p2325
(dp2326
g4
I0
sba(i__main__
Cell
p2327
(dp2328
g4
I0
sba(i__main__
Cell
p2329
(dp2330
g4
I0
sba(i__main__
Cell
p2331
(dp2332
g4
I0
sba(i__main__
Cell
p2333
(dp2334
g4
I0
sba(i__main__
Cell
p2335
(dp2336
g4
I0
sba(i__main__
Cell
p2337
(dp2338
g4
I0
sba(i__main__
Cell
p2339
(dp2340
g4
I0
sba(i__main__
Cell
p2341
(dp2342
g4
I0
sba(i__main__
Cell
p2343
(dp2344
g4
I0
sba(i__main__
Cell
p2345
(dp2346
g4
I0
sba(i__main__
Cell
p2347
(dp2348
g4
I0
sba(i__main__
Cell
p2349
(dp2350
g4
I0
sba(i__main__
Cell
p2351
(dp2352
g4
I0
sba(i__main__
Cell
p2353
(dp2354
g4
I0
sba(i__main__
Cell
p2355
(dp2356
g4
I0
sba(i__main__
Cell
p2357
(dp2358
g4
I0
sba(i__main__
Cell
p2359
(dp2360
g4
I0
sba(i__main__
Cell
p2361
(dp2362
g4
I2
sba(i__main__
Cell
p2363
(dp2364
g4
I2
sba(i__main__
Cell
p2365
(dp2366
g4
I2
sba(i__main__
Cell
p2367
(dp2368
g4
I2
sba(i__main__
Cell
p2369
(dp2370
g4
I2
sba(i__main__
Cell
p2371
(dp2372
g4
I2
sba(i__main__
Cell
p2373
(dp2374
g4
I2
sba(i__main__
Cell
p2375
(dp2376
g4
I2
sba(i__main__
Cell
p2377
(dp2378
g4
I2
sba(i__main__
Cell
p2379
(dp2380
g4
I2
sbaa(lp2381
(i__main__
Cell
p2382
(dp2383
g4
I0
sba(i__main__
Cell
p2384
(dp2385
g4
I0
sba(i__main__
Cell
p2386
(dp2387
g4
I0
sba(i__main__
Cell
p2388
(dp2389
g4
I0
sba(i__main__
Cell
p2390
(dp2391
g4
I0
sba(i__main__
Cell
p2392
(dp2393
g4
I0
sba(i__main__
Cell
p2394
(dp2395
g4
I0
sba(i__main__
Cell
p2396
(dp2397
g4
I0
sba(i__main__
Cell
p2398
(dp2399
g4
I0
sba(i__main__
Cell
p2400
(dp2401
g4
I0
sba(i__main__
Cell
p2402
(dp2403
g4
I0
sba(i__main__
Cell
p2404
(dp2405
g4
I0
sba(i__main__
Cell
p2406
(dp2407
g4
I0
sba(i__main__
Cell
p2408
(dp2409
g4
I0
sba(i__main__
Cell
p2410
(dp2411
g4
I0
sba(i__main__
Cell
p2412
(dp2413
g4
I0
sba(i__main__
Cell
p2414
(dp2415
g4
I0
sba(i__main__
Cell
p2416
(dp2417
g4
I0
sba(i__main__
Cell
p2418
(dp2419
g4
I0
sba(i__main__
Cell
p2420
(dp2421
g4
I0
sba(i__main__
Cell
p2422
(dp2423
g4
I2
sba(i__main__
Cell
p2424
(dp2425
g4
I2
sba(i__main__
Cell
p2426
(dp2427
g4
I2
sba(i__main__
Cell
p2428
(dp2429
g4
I2
sba(i__main__
Cell
p2430
(dp2431
g4
I2
sba(i__main__
Cell
p2432
(dp2433
g4
I2
sba(i__main__
Cell
p2434
(dp2435
g4
I2
sba(i__main__
Cell
p2436
(dp2437
g4
I2
sba(i__main__
Cell
p2438
(dp2439
g4
I2
sba(i__main__
Cell
p2440
(dp2441
g4
I2
sbaa(lp2442
(i__main__
Cell
p2443
(dp2444
g4
I0
sba(i__main__
Cell
p2445
(dp2446
g4
I0
sba(i__main__
Cell
p2447
(dp2448
g4
I0
sba(i__main__
Cell
p2449
(dp2450
g4
I0
sba(i__main__
Cell
p2451
(dp2452
g4
I0
sba(i__main__
Cell
p2453
(dp2454
g4
I0
sba(i__main__
Cell
p2455
(dp2456
g4
I0
sba(i__main__
Cell
p2457
(dp2458
g4
I0
sba(i__main__
Cell
p2459
(dp2460
g4
I0
sba(i__main__
Cell
p2461
(dp2462
g4
I0
sba(i__main__
Cell
p2463
(dp2464
g4
I0
sba(i__main__
Cell
p2465
(dp2466
g4
I0
sba(i__main__
Cell
p2467
(dp2468
g4
I0
sba(i__main__
Cell
p2469
(dp2470
g4
I0
sba(i__main__
Cell
p2471
(dp2472
g4
I0
sba(i__main__
Cell
p2473
(dp2474
g4
I0
sba(i__main__
Cell
p2475
(dp2476
g4
I0
sba(i__main__
Cell
p2477
(dp2478
g4
I0
sba(i__main__
Cell
p2479
(dp2480
g4
I0
sba(i__main__
Cell
p2481
(dp2482
g4
I0
sba(i__main__
Cell
p2483
(dp2484
g4
I2
sba(i__main__
Cell
p2485
(dp2486
g4
I2
sba(i__main__
Cell
p2487
(dp2488
g4
I2
sba(i__main__
Cell
p2489
(dp2490
g4
I2
sba(i__main__
Cell
p2491
(dp2492
g4
I2
sba(i__main__
Cell
p2493
(dp2494
g4
I2
sba(i__main__
Cell
p2495
(dp2496
g4
I2
sba(i__main__
Cell
p2497
(dp2498
g4
I2
sba(i__main__
Cell
p2499
(dp2500
g4
I2
sba(i__main__
Cell
p2501
(dp2502
g4
I2
sbaa(lp2503
(i__main__
Cell
p2504
(dp2505
g4
I0
sba(i__main__
Cell
p2506
(dp2507
g4
I0
sba(i__main__
Cell
p2508
(dp2509
g4
I0
sba(i__main__
Cell
p2510
(dp2511
g4
I0
sba(i__main__
Cell
p2512
(dp2513
g4
I0
sba(i__main__
Cell
p2514
(dp2515
g4
I0
sba(i__main__
Cell
p2516
(dp2517
g4
I0
sba(i__main__
Cell
p2518
(dp2519
g4
I0
sba(i__main__
Cell
p2520
(dp2521
g4
I0
sba(i__main__
Cell
p2522
(dp2523
g4
I0
sba(i__main__
Cell
p2524
(dp2525
g4
I0
sba(i__main__
Cell
p2526
(dp2527
g4
I0
sba(i__main__
Cell
p2528
(dp2529
g4
I0
sba(i__main__
Cell
p2530
(dp2531
g4
I0
sba(i__main__
Cell
p2532
(dp2533
g4
I0
sba(i__main__
Cell
p2534
(dp2535
g4
I0
sba(i__main__
Cell
p2536
(dp2537
g4
I0
sba(i__main__
Cell
p2538
(dp2539
g4
I0
sba(i__main__
Cell
p2540
(dp2541
g4
I0
sba(i__main__
Cell
p2542
(dp2543
g4
I0
sba(i__main__
Cell
p2544
(dp2545
g4
I2
sba(i__main__
Cell
p2546
(dp2547
g4
I2
sba(i__main__
Cell
p2548
(dp2549
g4
I2
sba(i__main__
Cell
p2550
(dp2551
g4
I2
sba(i__main__
Cell
p2552
(dp2553
g4
I2
sba(i__main__
Cell
p2554
(dp2555
g4
I2
sba(i__main__
Cell
p2556
(dp2557
g4
I2
sba(i__main__
Cell
p2558
(dp2559
g4
I2
sba(i__main__
Cell
p2560
(dp2561
g4
I2
sba(i__main__
Cell
p2562
(dp2563
g4
I2
sbaa(lp2564
(i__main__
Cell
p2565
(dp2566
g4
I0
sba(i__main__
Cell
p2567
(dp2568
g4
I0
sba(i__main__
Cell
p2569
(dp2570
g4
I0
sba(i__main__
Cell
p2571
(dp2572
g4
I0
sba(i__main__
Cell
p2573
(dp2574
g4
I0
sba(i__main__
Cell
p2575
(dp2576
g4
I0
sba(i__main__
Cell
p2577
(dp2578
g4
I0
sba(i__main__
Cell
p2579
(dp2580
g4
I0
sba(i__main__
Cell
p2581
(dp2582
g4
I0
sba(i__main__
Cell
p2583
(dp2584
g4
I0
sba(i__main__
Cell
p2585
(dp2586
g4
I0
sba(i__main__
Cell
p2587
(dp2588
g4
I0
sba(i__main__
Cell
p2589
(dp2590
g4
I0
sba(i__main__
Cell
p2591
(dp2592
g4
I0
sba(i__main__
Cell
p2593
(dp2594
g4
I0
sba(i__main__
Cell
p2595
(dp2596
g4
I0
sba(i__main__
Cell
p2597
(dp2598
g4
I0
sba(i__main__
Cell
p2599
(dp2600
g4
I0
sba(i__main__
Cell
p2601
(dp2602
g4
I0
sba(i__main__
Cell
p2603
(dp2604
g4
I0
sba(i__main__
Cell
p2605
(dp2606
g4
I2
sba(i__main__
Cell
p2607
(dp2608
g4
I2
sba(i__main__
Cell
p2609
(dp2610
g4
I2
sba(i__main__
Cell
p2611
(dp2612
g4
I2
sba(i__main__
Cell
p2613
(dp2614
g4
I2
sba(i__main__
Cell
p2615
(dp2616
g4
I2
sba(i__main__
Cell
p2617
(dp2618
g4
I2
sba(i__main__
Cell
p2619
(dp2620
g4
I2
sba(i__main__
Cell
p2621
(dp2622
g4
I2
sba(i__main__
Cell
p2623
(dp2624
g4
I2
sbaa(lp2625
(i__main__
Cell
p2626
(dp2627
g4
I0
sba(i__main__
Cell
p2628
(dp2629
g4
I0
sba(i__main__
Cell
p2630
(dp2631
g4
I0
sba(i__main__
Cell
p2632
(dp2633
g4
I0
sba(i__main__
Cell
p2634
(dp2635
g4
I0
sba(i__main__
Cell
p2636
(dp2637
g4
I0
sba(i__main__
Cell
p2638
(dp2639
g4
I0
sba(i__main__
Cell
p2640
(dp2641
g4
I0
sba(i__main__
Cell
p2642
(dp2643
g4
I0
sba(i__main__
Cell
p2644
(dp2645
g4
I0
sba(i__main__
Cell
p2646
(dp2647
g4
I0
sba(i__main__
Cell
p2648
(dp2649
g4
I0
sba(i__main__
Cell
p2650
(dp2651
g4
I0
sba(i__main__
Cell
p2652
(dp2653
g4
I0
sba(i__main__
Cell
p2654
(dp2655
g4
I0
sba(i__main__
Cell
p2656
(dp2657
g4
I0
sba(i__main__
Cell
p2658
(dp2659
g4
I0
sba(i__main__
Cell
p2660
(dp2661
g4
I0
sba(i__main__
Cell
p2662
(dp2663
g4
I0
sba(i__main__
Cell
p2664
(dp2665
g4
I0
sba(i__main__
Cell
p2666
(dp2667
g4
I2
sba(i__main__
Cell
p2668
(dp2669
g4
I2
sba(i__main__
Cell
p2670
(dp2671
g4
I2
sba(i__main__
Cell
p2672
(dp2673
g4
I2
sba(i__main__
Cell
p2674
(dp2675
g4
I2
sba(i__main__
Cell
p2676
(dp2677
g4
I2
sba(i__main__
Cell
p2678
(dp2679
g4
I2
sba(i__main__
Cell
p2680
(dp2681
g4
I2
sba(i__main__
Cell
p2682
(dp2683
g4
I2
sba(i__main__
Cell
p2684
(dp2685
g4
I2
sbaa(lp2686
(i__main__
Cell
p2687
(dp2688
g4
I0
sba(i__main__
Cell
p2689
(dp2690
g4
I0
sba(i__main__
Cell
p2691
(dp2692
g4
I0
sba(i__main__
Cell
p2693
(dp2694
g4
I0
sba(i__main__
Cell
p2695
(dp2696
g4
I0
sba(i__main__
Cell
p2697
(dp2698
g4
I0
sba(i__main__
Cell
p2699
(dp2700
g4
I0
sba(i__main__
Cell
p2701
(dp2702
g4
I0
sba(i__main__
Cell
p2703
(dp2704
g4
I0
sba(i__main__
Cell
p2705
(dp2706
g4
I0
sba(i__main__
Cell
p2707
(dp2708
g4
I0
sba(i__main__
Cell
p2709
(dp2710
g4
I0
sba(i__main__
Cell
p2711
(dp2712
g4
I0
sba(i__main__
Cell
p2713
(dp2714
g4
I0
sba(i__main__
Cell
p2715
(dp2716
g4
I0
sba(i__main__
Cell
p2717
(dp2718
g4
I0
sba(i__main__
Cell
p2719
(dp2720
g4
I0
sba(i__main__
Cell
p2721
(dp2722
g4
I0
sba(i__main__
Cell
p2723
(dp2724
g4
I0
sba(i__main__
Cell
p2725
(dp2726
g4
I0
sba(i__main__
Cell
p2727
(dp2728
g4
I2
sba(i__main__
Cell
p2729
(dp2730
g4
I2
sba(i__main__
Cell
p2731
(dp2732
g4
I2
sba(i__main__
Cell
p2733
(dp2734
g4
I2
sba(i__main__
Cell
p2735
(dp2736
g4
I2
sba(i__main__
Cell
p2737
(dp2738
g4
I2
sba(i__main__
Cell
p2739
(dp2740
g4
I2
sba(i__main__
Cell
p2741
(dp2742
g4
I2
sba(i__main__
Cell
p2743
(dp2744
g4
I2
sba(i__main__
Cell
p2745
(dp2746
g4
I2
sbaa(lp2747
(i__main__
Cell
p2748
(dp2749
g4
I0
sba(i__main__
Cell
p2750
(dp2751
g4
I0
sba(i__main__
Cell
p2752
(dp2753
g4
I0
sba(i__main__
Cell
p2754
(dp2755
g4
I0
sba(i__main__
Cell
p2756
(dp2757
g4
I0
sba(i__main__
Cell
p2758
(dp2759
g4
I0
sba(i__main__
Cell
p2760
(dp2761
g4
I0
sba(i__main__
Cell
p2762
(dp2763
g4
I0
sba(i__main__
Cell
p2764
(dp2765
g4
I0
sba(i__main__
Cell
p2766
(dp2767
g4
I0
sba(i__main__
Cell
p2768
(dp2769
g4
I0
sba(i__main__
Cell
p2770
(dp2771
g4
I0
sba(i__main__
Cell
p2772
(dp2773
g4
I0
sba(i__main__
Cell
p2774
(dp2775
g4
I0
sba(i__main__
Cell
p2776
(dp2777
g4
I0
sba(i__main__
Cell
p2778
(dp2779
g4
I0
sba(i__main__
Cell
p2780
(dp2781
g4
I0
sba(i__main__
Cell
p2782
(dp2783
g4
I0
sba(i__main__
Cell
p2784
(dp2785
g4
I0
sba(i__main__
Cell
p2786
(dp2787
g4
I0
sba(i__main__
Cell
p2788
(dp2789
g4
I2
sba(i__main__
Cell
p2790
(dp2791
g4
I2
sba(i__main__
Cell
p2792
(dp2793
g4
I2
sba(i__main__
Cell
p2794
(dp2795
g4
I2
sba(i__main__
Cell
p2796
(dp2797
g4
I2
sba(i__main__
Cell
p2798
(dp2799
g4
I2
sba(i__main__
Cell
p2800
(dp2801
g4
I2
sba(i__main__
Cell
p2802
(dp2803
g4
I2
sba(i__main__
Cell
p2804
(dp2805
g4
I2
sba(i__main__
Cell
p2806
(dp2807
g4
I2
sbaa(lp2808
(i__main__
Cell
p2809
(dp2810
g4
I0
sba(i__main__
Cell
p2811
(dp2812
g4
I0
sba(i__main__
Cell
p2813
(dp2814
g4
I0
sba(i__main__
Cell
p2815
(dp2816
g4
I0
sba(i__main__
Cell
p2817
(dp2818
g4
I0
sba(i__main__
Cell
p2819
(dp2820
g4
I0
sba(i__main__
Cell
p2821
(dp2822
g4
I0
sba(i__main__
Cell
p2823
(dp2824
g4
I0
sba(i__main__
Cell
p2825
(dp2826
g4
I0
sba(i__main__
Cell
p2827
(dp2828
g4
I0
sba(i__main__
Cell
p2829
(dp2830
g4
I0
sba(i__main__
Cell
p2831
(dp2832
g4
I0
sba(i__main__
Cell
p2833
(dp2834
g4
I0
sba(i__main__
Cell
p2835
(dp2836
g4
I0
sba(i__main__
Cell
p2837
(dp2838
g4
I0
sba(i__main__
Cell
p2839
(dp2840
g4
I0
sba(i__main__
Cell
p2841
(dp2842
g4
I0
sba(i__main__
Cell
p2843
(dp2844
g4
I0
sba(i__main__
Cell
p2845
(dp2846
g4
I0
sba(i__main__
Cell
p2847
(dp2848
g4
I0
sba(i__main__
Cell
p2849
(dp2850
g4
I2
sba(i__main__
Cell
p2851
(dp2852
g4
I2
sba(i__main__
Cell
p2853
(dp2854
g4
I2
sba(i__main__
Cell
p2855
(dp2856
g4
I2
sba(i__main__
Cell
p2857
(dp2858
g4
I2
sba(i__main__
Cell
p2859
(dp2860
g4
I2
sba(i__main__
Cell
p2861
(dp2862
g4
I2
sba(i__main__
Cell
p2863
(dp2864
g4
I2
sba(i__main__
Cell
p2865
(dp2866
g4
I2
sba(i__main__
Cell
p2867
(dp2868
g4
I2
sbaa(lp2869
(i__main__
Cell
p2870
(dp2871
g4
I0
sba(i__main__
Cell
p2872
(dp2873
g4
I0
sba(i__main__
Cell
p2874
(dp2875
g4
I0
sba(i__main__
Cell
p2876
(dp2877
g4
I0
sba(i__main__
Cell
p2878
(dp2879
g4
I0
sba(i__main__
Cell
p2880
(dp2881
g4
I0
sba(i__main__
Cell
p2882
(dp2883
g4
I0
sba(i__main__
Cell
p2884
(dp2885
g4
I0
sba(i__main__
Cell
p2886
(dp2887
g4
I0
sba(i__main__
Cell
p2888
(dp2889
g4
I0
sba(i__main__
Cell
p2890
(dp2891
g4
I0
sba(i__main__
Cell
p2892
(dp2893
g4
I0
sba(i__main__
Cell
p2894
(dp2895
g4
I0
sba(i__main__
Cell
p2896
(dp2897
g4
I0
sba(i__main__
Cell
p2898
(dp2899
g4
I0
sba(i__main__
Cell
p2900
(dp2901
g4
I0
sba(i__main__
Cell
p2902
(dp2903
g4
I0
sba(i__main__
Cell
p2904
(dp2905
g4
I0
sba(i__main__
Cell
p2906
(dp2907
g4
I0
sba(i__main__
Cell
p2908
(dp2909
g4
I0
sba(i__main__
Cell
p2910
(dp2911
g4
I2
sba(i__main__
Cell
p2912
(dp2913
g4
I2
sba(i__main__
Cell
p2914
(dp2915
g4
I2
sba(i__main__
Cell
p2916
(dp2917
g4
I2
sba(i__main__
Cell
p2918
(dp2919
g4
I2
sba(i__main__
Cell
p2920
(dp2921
g4
I2
sba(i__main__
Cell
p2922
(dp2923
g4
I2
sba(i__main__
Cell
p2924
(dp2925
g4
I2
sba(i__main__
Cell
p2926
(dp2927
g4
I2
sba(i__main__
Cell
p2928
(dp2929
g4
I2
sbaa(lp2930
(i__main__
Cell
p2931
(dp2932
g4
I0
sba(i__main__
Cell
p2933
(dp2934
g4
I0
sba(i__main__
Cell
p2935
(dp2936
g4
I0
sba(i__main__
Cell
p2937
(dp2938
g4
I0
sba(i__main__
Cell
p2939
(dp2940
g4
I0
sba(i__main__
Cell
p2941
(dp2942
g4
I0
sba(i__main__
Cell
p2943
(dp2944
g4
I0
sba(i__main__
Cell
p2945
(dp2946
g4
I0
sba(i__main__
Cell
p2947
(dp2948
g4
I0
sba(i__main__
Cell
p2949
(dp2950
g4
I0
sba(i__main__
Cell
p2951
(dp2952
g4
I0
sba(i__main__
Cell
p2953
(dp2954
g4
I0
sba(i__main__
Cell
p2955
(dp2956
g4
I0
sba(i__main__
Cell
p2957
(dp2958
g4
I0
sba(i__main__
Cell
p2959
(dp2960
g4
I0
sba(i__main__
Cell
p2961
(dp2962
g4
I0
sba(i__main__
Cell
p2963
(dp2964
g4
I0
sba(i__main__
Cell
p2965
(dp2966
g4
I0
sba(i__main__
Cell
p2967
(dp2968
g4
I0
sba(i__main__
Cell
p2969
(dp2970
g4
I0
sba(i__main__
Cell
p2971
(dp2972
g4
I2
sba(i__main__
Cell
p2973
(dp2974
g4
I2
sba(i__main__
Cell
p2975
(dp2976
g4
I2
sba(i__main__
Cell
p2977
(dp2978
g4
I2
sba(i__main__
Cell
p2979
(dp2980
g4
I2
sba(i__main__
Cell
p2981
(dp2982
g4
I2
sba(i__main__
Cell
p2983
(dp2984
g4
I2
sba(i__main__
Cell
p2985
(dp2986
g4
I2
sba(i__main__
Cell
p2987
(dp2988
g4
I2
sba(i__main__
Cell
p2989
(dp2990
g4
I2
sbaa(lp2991
(i__main__
Cell
p2992
(dp2993
g4
I0
sba(i__main__
Cell
p2994
(dp2995
g4
I0
sba(i__main__
Cell
p2996
(dp2997
g4
I0
sba(i__main__
Cell
p2998
(dp2999
g4
I0
sba(i__main__
Cell
p3000
(dp3001
g4
I0
sba(i__main__
Cell
p3002
(dp3003
g4
I0
sba(i__main__
Cell
p3004
(dp3005
g4
I0
sba(i__main__
Cell
p3006
(dp3007
g4
I0
sba(i__main__
Cell
p3008
(dp3009
g4
I0
sba(i__main__
Cell
p3010
(dp3011
g4
I0
sba(i__main__
Cell
p3012
(dp3013
g4
I0
sba(i__main__
Cell
p3014
(dp3015
g4
I0
sba(i__main__
Cell
p3016
(dp3017
g4
I0
sba(i__main__
Cell
p3018
(dp3019
g4
I0
sba(i__main__
Cell
p3020
(dp3021
g4
I0
sba(i__main__
Cell
p3022
(dp3023
g4
I0
sba(i__main__
Cell
p3024
(dp3025
g4
I0
sba(i__main__
Cell
p3026
(dp3027
g4
I0
sba(i__main__
Cell
p3028
(dp3029
g4
I0
sba(i__main__
Cell
p3030
(dp3031
g4
I0
sba(i__main__
Cell
p3032
(dp3033
g4
I2
sba(i__main__
Cell
p3034
(dp3035
g4
I2
sba(i__main__
Cell
p3036
(dp3037
g4
I2
sba(i__main__
Cell
p3038
(dp3039
g4
I2
sba(i__main__
Cell
p3040
(dp3041
g4
I2
sba(i__main__
Cell
p3042
(dp3043
g4
I2
sba(i__main__
Cell
p3044
(dp3045
g4
I2
sba(i__main__
Cell
p3046
(dp3047
g4
I2
sba(i__main__
Cell
p3048
(dp3049
g4
I2
sba(i__main__
Cell
p3050
(dp3051
g4
I2
sbaa.