(i__main__
State
p0
(dp1
S'map'
p2
(lp3
(lp4
(i__main__
Cell
p5
(dp6
S'terr'
p7
I0
sba(i__main__
Cell
p8
(dp9
g7
I0
sba(i__main__
Cell
p10
(dp11
g7
I0
sba(i__main__
Cell
p12
(dp13
g7
I0
sba(i__main__
Cell
p14
(dp15
g7
I0
sba(i__main__
Cell
p16
(dp17
g7
I0
sba(i__main__
Cell
p18
(dp19
g7
I0
sba(i__main__
Cell
p20
(dp21
g7
I0
sba(i__main__
Cell
p22
(dp23
g7
I0
sba(i__main__
Cell
p24
(dp25
g7
I0
sba(i__main__
Cell
p26
(dp27
g7
I0
sba(i__main__
Cell
p28
(dp29
g7
I0
sba(i__main__
Cell
p30
(dp31
g7
I0
sba(i__main__
Cell
p32
(dp33
g7
I0
sba(i__main__
Cell
p34
(dp35
g7
I0
sba(i__main__
Cell
p36
(dp37
g7
I1
sba(i__main__
Cell
p38
(dp39
g7
I0
sba(i__main__
Cell
p40
(dp41
g7
I0
sba(i__main__
Cell
p42
(dp43
g7
I0
sba(i__main__
Cell
p44
(dp45
g7
I0
sba(i__main__
Cell
p46
(dp47
g7
I0
sba(i__main__
Cell
p48
(dp49
g7
I0
sba(i__main__
Cell
p50
(dp51
g7
I0
sba(i__main__
Cell
p52
(dp53
g7
I0
sba(i__main__
Cell
p54
(dp55
g7
I0
sba(i__main__
Cell
p56
(dp57
g7
I0
sba(i__main__
Cell
p58
(dp59
g7
I0
sba(i__main__
Cell
p60
(dp61
g7
I0
sba(i__main__
Cell
p62
(dp63
g7
I0
sba(i__main__
Cell
p64
(dp65
g7
I0
sbaa(lp66
(i__main__
Cell
p67
(dp68
g7
I0
sba(i__main__
Cell
p69
(dp70
g7
I0
sba(i__main__
Cell
p71
(dp72
g7
I0
sba(i__main__
Cell
p73
(dp74
g7
I0
sba(i__main__
Cell
p75
(dp76
g7
I0
sba(i__main__
Cell
p77
(dp78
g7
I0
sba(i__main__
Cell
p79
(dp80
g7
I0
sba(i__main__
Cell
p81
(dp82
g7
I0
sba(i__main__
Cell
p83
(dp84
g7
I0
sba(i__main__
Cell
p85
(dp86
g7
I0
sba(i__main__
Cell
p87
(dp88
g7
I0
sba(i__main__
Cell
p89
(dp90
g7
I0
sba(i__main__
Cell
p91
(dp92
g7
I0
sba(i__main__
Cell
p93
(dp94
g7
I0
sba(i__main__
Cell
p95
(dp96
g7
I0
sba(i__main__
Cell
p97
(dp98
g7
I1
sba(i__main__
Cell
p99
(dp100
g7
I1
sba(i__main__
Cell
p101
(dp102
g7
I0
sba(i__main__
Cell
p103
(dp104
g7
I0
sba(i__main__
Cell
p105
(dp106
g7
I0
sba(i__main__
Cell
p107
(dp108
g7
I0
sba(i__main__
Cell
p109
(dp110
g7
I0
sba(i__main__
Cell
p111
(dp112
g7
I0
sba(i__main__
Cell
p113
(dp114
g7
I0
sba(i__main__
Cell
p115
(dp116
g7
I0
sba(i__main__
Cell
p117
(dp118
g7
I0
sba(i__main__
Cell
p119
(dp120
g7
I0
sba(i__main__
Cell
p121
(dp122
g7
I0
sba(i__main__
Cell
p123
(dp124
g7
I0
sba(i__main__
Cell
p125
(dp126
g7
I0
sbaa(lp127
(i__main__
Cell
p128
(dp129
g7
I0
sba(i__main__
Cell
p130
(dp131
g7
I0
sba(i__main__
Cell
p132
(dp133
g7
I0
sba(i__main__
Cell
p134
(dp135
g7
I0
sba(i__main__
Cell
p136
(dp137
g7
I0
sba(i__main__
Cell
p138
(dp139
g7
I0
sba(i__main__
Cell
p140
(dp141
g7
I0
sba(i__main__
Cell
p142
(dp143
g7
I0
sba(i__main__
Cell
p144
(dp145
g7
I0
sba(i__main__
Cell
p146
(dp147
g7
I0
sba(i__main__
Cell
p148
(dp149
g7
I0
sba(i__main__
Cell
p150
(dp151
g7
I0
sba(i__main__
Cell
p152
(dp153
g7
I0
sba(i__main__
Cell
p154
(dp155
g7
I0
sba(i__main__
Cell
p156
(dp157
g7
I1
sba(i__main__
Cell
p158
(dp159
g7
I1
sba(i__main__
Cell
p160
(dp161
g7
I0
sba(i__main__
Cell
p162
(dp163
g7
I0
sba(i__main__
Cell
p164
(dp165
g7
I0
sba(i__main__
Cell
p166
(dp167
g7
I0
sba(i__main__
Cell
p168
(dp169
g7
I0
sba(i__main__
Cell
p170
(dp171
g7
I0
sba(i__main__
Cell
p172
(dp173
g7
I0
sba(i__main__
Cell
p174
(dp175
g7
I0
sba(i__main__
Cell
p176
(dp177
g7
I0
sba(i__main__
Cell
p178
(dp179
g7
I0
sba(i__main__
Cell
p180
(dp181
g7
I0
sba(i__main__
Cell
p182
(dp183
g7
I0
sba(i__main__
Cell
p184
(dp185
g7
I0
sba(i__main__
Cell
p186
(dp187
g7
I0
sbaa(lp188
(i__main__
Cell
p189
(dp190
g7
I0
sba(i__main__
Cell
p191
(dp192
g7
I0
sba(i__main__
Cell
p193
(dp194
g7
I0
sba(i__main__
Cell
p195
(dp196
g7
I0
sba(i__main__
Cell
p197
(dp198
g7
I0
sba(i__main__
Cell
p199
(dp200
g7
I0
sba(i__main__
Cell
p201
(dp202
g7
I0
sba(i__main__
Cell
p203
(dp204
g7
I0
sba(i__main__
Cell
p205
(dp206
g7
I0
sba(i__main__
Cell
p207
(dp208
g7
I0
sba(i__main__
Cell
p209
(dp210
g7
I0
sba(i__main__
Cell
p211
(dp212
g7
I0
sba(i__main__
Cell
p213
(dp214
g7
I0
sba(i__main__
Cell
p215
(dp216
g7
I0
sba(i__main__
Cell
p217
(dp218
g7
I1
sba(i__main__
Cell
p219
(dp220
g7
I0
sba(i__main__
Cell
p221
(dp222
g7
I0
sba(i__main__
Cell
p223
(dp224
g7
I0
sba(i__main__
Cell
p225
(dp226
g7
I0
sba(i__main__
Cell
p227
(dp228
g7
I0
sba(i__main__
Cell
p229
(dp230
g7
I0
sba(i__main__
Cell
p231
(dp232
g7
I0
sba(i__main__
Cell
p233
(dp234
g7
I0
sba(i__main__
Cell
p235
(dp236
g7
I0
sba(i__main__
Cell
p237
(dp238
g7
I0
sba(i__main__
Cell
p239
(dp240
g7
I0
sba(i__main__
Cell
p241
(dp242
g7
I0
sba(i__main__
Cell
p243
(dp244
g7
I0
sba(i__main__
Cell
p245
(dp246
g7
I0
sba(i__main__
Cell
p247
(dp248
g7
I0
sbaa(lp249
(i__main__
Cell
p250
(dp251
g7
I0
sba(i__main__
Cell
p252
(dp253
g7
I0
sba(i__main__
Cell
p254
(dp255
g7
I0
sba(i__main__
Cell
p256
(dp257
g7
I0
sba(i__main__
Cell
p258
(dp259
g7
I0
sba(i__main__
Cell
p260
(dp261
g7
I0
sba(i__main__
Cell
p262
(dp263
g7
I0
sba(i__main__
Cell
p264
(dp265
g7
I0
sba(i__main__
Cell
p266
(dp267
g7
I0
sba(i__main__
Cell
p268
(dp269
g7
I0
sba(i__main__
Cell
p270
(dp271
g7
I0
sba(i__main__
Cell
p272
(dp273
g7
I0
sba(i__main__
Cell
p274
(dp275
g7
I1
sba(i__main__
Cell
p276
(dp277
g7
I1
sba(i__main__
Cell
p278
(dp279
g7
I0
sba(i__main__
Cell
p280
(dp281
g7
I0
sba(i__main__
Cell
p282
(dp283
g7
I0
sba(i__main__
Cell
p284
(dp285
g7
I0
sba(i__main__
Cell
p286
(dp287
g7
I0
sba(i__main__
Cell
p288
(dp289
g7
I0
sba(i__main__
Cell
p290
(dp291
g7
I0
sba(i__main__
Cell
p292
(dp293
g7
I0
sba(i__main__
Cell
p294
(dp295
g7
I0
sba(i__main__
Cell
p296
(dp297
g7
I0
sba(i__main__
Cell
p298
(dp299
g7
I0
sba(i__main__
Cell
p300
(dp301
g7
I0
sba(i__main__
Cell
p302
(dp303
g7
I0
sba(i__main__
Cell
p304
(dp305
g7
I0
sba(i__main__
Cell
p306
(dp307
g7
I0
sba(i__main__
Cell
p308
(dp309
g7
I0
sbaa(lp310
(i__main__
Cell
p311
(dp312
g7
I0
sba(i__main__
Cell
p313
(dp314
g7
I0
sba(i__main__
Cell
p315
(dp316
g7
I0
sba(i__main__
Cell
p317
(dp318
g7
I0
sba(i__main__
Cell
p319
(dp320
g7
I0
sba(i__main__
Cell
p321
(dp322
g7
I0
sba(i__main__
Cell
p323
(dp324
g7
I0
sba(i__main__
Cell
p325
(dp326
g7
I0
sba(i__main__
Cell
p327
(dp328
g7
I1
sba(i__main__
Cell
p329
(dp330
g7
I0
sba(i__main__
Cell
p331
(dp332
g7
I0
sba(i__main__
Cell
p333
(dp334
g7
I1
sba(i__main__
Cell
p335
(dp336
g7
I1
sba(i__main__
Cell
p337
(dp338
g7
I0
sba(i__main__
Cell
p339
(dp340
g7
I0
sba(i__main__
Cell
p341
(dp342
g7
I0
sba(i__main__
Cell
p343
(dp344
g7
I0
sba(i__main__
Cell
p345
(dp346
g7
I0
sba(i__main__
Cell
p347
(dp348
g7
I0
sba(i__main__
Cell
p349
(dp350
g7
I0
sba(i__main__
Cell
p351
(dp352
g7
I0
sba(i__main__
Cell
p353
(dp354
g7
I0
sba(i__main__
Cell
p355
(dp356
g7
I0
sba(i__main__
Cell
p357
(dp358
g7
I0
sba(i__main__
Cell
p359
(dp360
g7
I0
sba(i__main__
Cell
p361
(dp362
g7
I0
sba(i__main__
Cell
p363
(dp364
g7
I0
sba(i__main__
Cell
p365
(dp366
g7
I0
sba(i__main__
Cell
p367
(dp368
g7
I0
sba(i__main__
Cell
p369
(dp370
g7
I0
sbaa(lp371
(i__main__
Cell
p372
(dp373
g7
I0
sba(i__main__
Cell
p374
(dp375
g7
I0
sba(i__main__
Cell
p376
(dp377
g7
I0
sba(i__main__
Cell
p378
(dp379
g7
I0
sba(i__main__
Cell
p380
(dp381
g7
I0
sba(i__main__
Cell
p382
(dp383
g7
I0
sba(i__main__
Cell
p384
(dp385
g7
I0
sba(i__main__
Cell
p386
(dp387
g7
I0
sba(i__main__
Cell
p388
(dp389
g7
I1
sba(i__main__
Cell
p390
(dp391
g7
I0
sba(i__main__
Cell
p392
(dp393
g7
I1
sba(i__main__
Cell
p394
(dp395
g7
I1
sba(i__main__
Cell
p396
(dp397
g7
I1
sba(i__main__
Cell
p398
(dp399
g7
I0
sba(i__main__
Cell
p400
(dp401
g7
I0
sba(i__main__
Cell
p402
(dp403
g7
I0
sba(i__main__
Cell
p404
(dp405
g7
I0
sba(i__main__
Cell
p406
(dp407
g7
I0
sba(i__main__
Cell
p408
(dp409
g7
I0
sba(i__main__
Cell
p410
(dp411
g7
I0
sba(i__main__
Cell
p412
(dp413
g7
I0
sba(i__main__
Cell
p414
(dp415
g7
I0
sba(i__main__
Cell
p416
(dp417
g7
I0
sba(i__main__
Cell
p418
(dp419
g7
I0
sba(i__main__
Cell
p420
(dp421
g7
I0
sba(i__main__
Cell
p422
(dp423
g7
I0
sba(i__main__
Cell
p424
(dp425
g7
I0
sba(i__main__
Cell
p426
(dp427
g7
I0
sba(i__main__
Cell
p428
(dp429
g7
I0
sba(i__main__
Cell
p430
(dp431
g7
I0
sbaa(lp432
(i__main__
Cell
p433
(dp434
g7
I0
sba(i__main__
Cell
p435
(dp436
g7
I0
sba(i__main__
Cell
p437
(dp438
g7
I0
sba(i__main__
Cell
p439
(dp440
g7
I0
sba(i__main__
Cell
p441
(dp442
g7
I0
sba(i__main__
Cell
p443
(dp444
g7
I0
sba(i__main__
Cell
p445
(dp446
g7
I0
sba(i__main__
Cell
p447
(dp448
g7
I0
sba(i__main__
Cell
p449
(dp450
g7
I1
sba(i__main__
Cell
p451
(dp452
g7
I1
sba(i__main__
Cell
p453
(dp454
g7
I1
sba(i__main__
Cell
p455
(dp456
g7
I1
sba(i__main__
Cell
p457
(dp458
g7
I0
sba(i__main__
Cell
p459
(dp460
g7
I0
sba(i__main__
Cell
p461
(dp462
g7
I0
sba(i__main__
Cell
p463
(dp464
g7
I0
sba(i__main__
Cell
p465
(dp466
g7
I0
sba(i__main__
Cell
p467
(dp468
g7
I0
sba(i__main__
Cell
p469
(dp470
g7
I0
sba(i__main__
Cell
p471
(dp472
g7
I0
sba(i__main__
Cell
p473
(dp474
g7
I0
sba(i__main__
Cell
p475
(dp476
g7
I0
sba(i__main__
Cell
p477
(dp478
g7
I0
sba(i__main__
Cell
p479
(dp480
g7
I0
sba(i__main__
Cell
p481
(dp482
g7
I0
sba(i__main__
Cell
p483
(dp484
g7
I0
sba(i__main__
Cell
p485
(dp486
g7
I0
sba(i__main__
Cell
p487
(dp488
g7
I0
sba(i__main__
Cell
p489
(dp490
g7
I0
sba(i__main__
Cell
p491
(dp492
g7
I0
sbaa(lp493
(i__main__
Cell
p494
(dp495
g7
I0
sba(i__main__
Cell
p496
(dp497
g7
I0
sba(i__main__
Cell
p498
(dp499
g7
I0
sba(i__main__
Cell
p500
(dp501
g7
I0
sba(i__main__
Cell
p502
(dp503
g7
I0
sba(i__main__
Cell
p504
(dp505
g7
I0
sba(i__main__
Cell
p506
(dp507
g7
I0
sba(i__main__
Cell
p508
(dp509
g7
I0
sba(i__main__
Cell
p510
(dp511
g7
I1
sba(i__main__
Cell
p512
(dp513
g7
I1
sba(i__main__
Cell
p514
(dp515
g7
I1
sba(i__main__
Cell
p516
(dp517
g7
I0
sba(i__main__
Cell
p518
(dp519
g7
I0
sba(i__main__
Cell
p520
(dp521
g7
I0
sba(i__main__
Cell
p522
(dp523
g7
I0
sba(i__main__
Cell
p524
(dp525
g7
I0
sba(i__main__
Cell
p526
(dp527
g7
I0
sba(i__main__
Cell
p528
(dp529
g7
I0
sba(i__main__
Cell
p530
(dp531
g7
I0
sba(i__main__
Cell
p532
(dp533
g7
I0
sba(i__main__
Cell
p534
(dp535
g7
I0
sba(i__main__
Cell
p536
(dp537
g7
I0
sba(i__main__
Cell
p538
(dp539
g7
I1
sba(i__main__
Cell
p540
(dp541
g7
I0
sba(i__main__
Cell
p542
(dp543
g7
I0
sba(i__main__
Cell
p544
(dp545
g7
I0
sba(i__main__
Cell
p546
(dp547
g7
I0
sba(i__main__
Cell
p548
(dp549
g7
I0
sba(i__main__
Cell
p550
(dp551
g7
I0
sba(i__main__
Cell
p552
(dp553
g7
I0
sbaa(lp554
(i__main__
Cell
p555
(dp556
g7
I0
sba(i__main__
Cell
p557
(dp558
g7
I0
sba(i__main__
Cell
p559
(dp560
g7
I0
sba(i__main__
Cell
p561
(dp562
g7
I0
sba(i__main__
Cell
p563
(dp564
g7
I0
sba(i__main__
Cell
p565
(dp566
g7
I0
sba(i__main__
Cell
p567
(dp568
g7
I0
sba(i__main__
Cell
p569
(dp570
g7
I0
sba(i__main__
Cell
p571
(dp572
g7
I1
sba(i__main__
Cell
p573
(dp574
g7
I1
sba(i__main__
Cell
p575
(dp576
g7
I0
sba(i__main__
Cell
p577
(dp578
g7
I1
sba(i__main__
Cell
p579
(dp580
g7
I0
sba(i__main__
Cell
p581
(dp582
g7
I0
sba(i__main__
Cell
p583
(dp584
g7
I0
sba(i__main__
Cell
p585
(dp586
g7
I0
sba(i__main__
Cell
p587
(dp588
g7
I0
sba(i__main__
Cell
p589
(dp590
g7
I0
sba(i__main__
Cell
p591
(dp592
g7
I1
sba(i__main__
Cell
p593
(dp594
g7
I0
sba(i__main__
Cell
p595
(dp596
g7
I0
sba(i__main__
Cell
p597
(dp598
g7
I0
sba(i__main__
Cell
p599
(dp600
g7
I0
sba(i__main__
Cell
p601
(dp602
g7
I0
sba(i__main__
Cell
p603
(dp604
g7
I0
sba(i__main__
Cell
p605
(dp606
g7
I0
sba(i__main__
Cell
p607
(dp608
g7
I0
sba(i__main__
Cell
p609
(dp610
g7
I0
sba(i__main__
Cell
p611
(dp612
g7
I0
sba(i__main__
Cell
p613
(dp614
g7
I0
sbaa(lp615
(i__main__
Cell
p616
(dp617
g7
I0
sba(i__main__
Cell
p618
(dp619
g7
I0
sba(i__main__
Cell
p620
(dp621
g7
I0
sba(i__main__
Cell
p622
(dp623
g7
I0
sba(i__main__
Cell
p624
(dp625
g7
I0
sba(i__main__
Cell
p626
(dp627
g7
I0
sba(i__main__
Cell
p628
(dp629
g7
I0
sba(i__main__
Cell
p630
(dp631
g7
I0
sba(i__main__
Cell
p632
(dp633
g7
I1
sba(i__main__
Cell
p634
(dp635
g7
I1
sba(i__main__
Cell
p636
(dp637
g7
I0
sba(i__main__
Cell
p638
(dp639
g7
I0
sba(i__main__
Cell
p640
(dp641
g7
I1
sba(i__main__
Cell
p642
(dp643
g7
I0
sba(i__main__
Cell
p644
(dp645
g7
I1
sba(i__main__
Cell
p646
(dp647
g7
I0
sba(i__main__
Cell
p648
(dp649
g7
I0
sba(i__main__
Cell
p650
(dp651
g7
I0
sba(i__main__
Cell
p652
(dp653
g7
I0
sba(i__main__
Cell
p654
(dp655
g7
I0
sba(i__main__
Cell
p656
(dp657
g7
I0
sba(i__main__
Cell
p658
(dp659
g7
I0
sba(i__main__
Cell
p660
(dp661
g7
I0
sba(i__main__
Cell
p662
(dp663
g7
I0
sba(i__main__
Cell
p664
(dp665
g7
I0
sba(i__main__
Cell
p666
(dp667
g7
I0
sba(i__main__
Cell
p668
(dp669
g7
I0
sba(i__main__
Cell
p670
(dp671
g7
I0
sba(i__main__
Cell
p672
(dp673
g7
I0
sba(i__main__
Cell
p674
(dp675
g7
I0
sbaa(lp676
(i__main__
Cell
p677
(dp678
g7
I0
sba(i__main__
Cell
p679
(dp680
g7
I0
sba(i__main__
Cell
p681
(dp682
g7
I0
sba(i__main__
Cell
p683
(dp684
g7
I0
sba(i__main__
Cell
p685
(dp686
g7
I0
sba(i__main__
Cell
p687
(dp688
g7
I0
sba(i__main__
Cell
p689
(dp690
g7
I0
sba(i__main__
Cell
p691
(dp692
g7
I0
sba(i__main__
Cell
p693
(dp694
g7
I0
sba(i__main__
Cell
p695
(dp696
g7
I0
sba(i__main__
Cell
p697
(dp698
g7
I0
sba(i__main__
Cell
p699
(dp700
g7
I0
sba(i__main__
Cell
p701
(dp702
g7
I1
sba(i__main__
Cell
p703
(dp704
g7
I0
sba(i__main__
Cell
p705
(dp706
g7
I0
sba(i__main__
Cell
p707
(dp708
g7
I0
sba(i__main__
Cell
p709
(dp710
g7
I0
sba(i__main__
Cell
p711
(dp712
g7
I0
sba(i__main__
Cell
p713
(dp714
g7
I1
sba(i__main__
Cell
p715
(dp716
g7
I0
sba(i__main__
Cell
p717
(dp718
g7
I0
sba(i__main__
Cell
p719
(dp720
g7
I0
sba(i__main__
Cell
p721
(dp722
g7
I0
sba(i__main__
Cell
p723
(dp724
g7
I0
sba(i__main__
Cell
p725
(dp726
g7
I0
sba(i__main__
Cell
p727
(dp728
g7
I0
sba(i__main__
Cell
p729
(dp730
g7
I0
sba(i__main__
Cell
p731
(dp732
g7
I0
sba(i__main__
Cell
p733
(dp734
g7
I0
sba(i__main__
Cell
p735
(dp736
g7
I0
sbaa(lp737
(i__main__
Cell
p738
(dp739
g7
I0
sba(i__main__
Cell
p740
(dp741
g7
I0
sba(i__main__
Cell
p742
(dp743
g7
I0
sba(i__main__
Cell
p744
(dp745
g7
I0
sba(i__main__
Cell
p746
(dp747
g7
I0
sba(i__main__
Cell
p748
(dp749
g7
I0
sba(i__main__
Cell
p750
(dp751
g7
I0
sba(i__main__
Cell
p752
(dp753
g7
I0
sba(i__main__
Cell
p754
(dp755
g7
I0
sba(i__main__
Cell
p756
(dp757
g7
I0
sba(i__main__
Cell
p758
(dp759
g7
I0
sba(i__main__
Cell
p760
(dp761
g7
I0
sba(i__main__
Cell
p762
(dp763
g7
I0
sba(i__main__
Cell
p764
(dp765
g7
I0
sba(i__main__
Cell
p766
(dp767
g7
I0
sba(i__main__
Cell
p768
(dp769
g7
I0
sba(i__main__
Cell
p770
(dp771
g7
I0
sba(i__main__
Cell
p772
(dp773
g7
I1
sba(i__main__
Cell
p774
(dp775
g7
I1
sba(i__main__
Cell
p776
(dp777
g7
I0
sba(i__main__
Cell
p778
(dp779
g7
I0
sba(i__main__
Cell
p780
(dp781
g7
I0
sba(i__main__
Cell
p782
(dp783
g7
I0
sba(i__main__
Cell
p784
(dp785
g7
I0
sba(i__main__
Cell
p786
(dp787
g7
I0
sba(i__main__
Cell
p788
(dp789
g7
I0
sba(i__main__
Cell
p790
(dp791
g7
I0
sba(i__main__
Cell
p792
(dp793
g7
I0
sba(i__main__
Cell
p794
(dp795
g7
I0
sba(i__main__
Cell
p796
(dp797
g7
I0
sbaa(lp798
(i__main__
Cell
p799
(dp800
g7
I0
sba(i__main__
Cell
p801
(dp802
g7
I0
sba(i__main__
Cell
p803
(dp804
g7
I0
sba(i__main__
Cell
p805
(dp806
g7
I0
sba(i__main__
Cell
p807
(dp808
g7
I0
sba(i__main__
Cell
p809
(dp810
g7
I0
sba(i__main__
Cell
p811
(dp812
g7
I0
sba(i__main__
Cell
p813
(dp814
g7
I0
sba(i__main__
Cell
p815
(dp816
g7
I0
sba(i__main__
Cell
p817
(dp818
g7
I0
sba(i__main__
Cell
p819
(dp820
g7
I0
sba(i__main__
Cell
p821
(dp822
g7
I0
sba(i__main__
Cell
p823
(dp824
g7
I0
sba(i__main__
Cell
p825
(dp826
g7
I0
sba(i__main__
Cell
p827
(dp828
g7
I0
sba(i__main__
Cell
p829
(dp830
g7
I0
sba(i__main__
Cell
p831
(dp832
g7
I1
sba(i__main__
Cell
p833
(dp834
g7
I1
sba(i__main__
Cell
p835
(dp836
g7
I1
sba(i__main__
Cell
p837
(dp838
g7
I0
sba(i__main__
Cell
p839
(dp840
g7
I0
sba(i__main__
Cell
p841
(dp842
g7
I0
sba(i__main__
Cell
p843
(dp844
g7
I0
sba(i__main__
Cell
p845
(dp846
g7
I0
sba(i__main__
Cell
p847
(dp848
g7
I0
sba(i__main__
Cell
p849
(dp850
g7
I0
sba(i__main__
Cell
p851
(dp852
g7
I0
sba(i__main__
Cell
p853
(dp854
g7
I0
sba(i__main__
Cell
p855
(dp856
g7
I0
sba(i__main__
Cell
p857
(dp858
g7
I0
sbaa(lp859
(i__main__
Cell
p860
(dp861
g7
I0
sba(i__main__
Cell
p862
(dp863
g7
I0
sba(i__main__
Cell
p864
(dp865
g7
I0
sba(i__main__
Cell
p866
(dp867
g7
I0
sba(i__main__
Cell
p868
(dp869
g7
I0
sba(i__main__
Cell
p870
(dp871
g7
I0
sba(i__main__
Cell
p872
(dp873
g7
I0
sba(i__main__
Cell
p874
(dp875
g7
I0
sba(i__main__
Cell
p876
(dp877
g7
I0
sba(i__main__
Cell
p878
(dp879
g7
I0
sba(i__main__
Cell
p880
(dp881
g7
I0
sba(i__main__
Cell
p882
(dp883
g7
I0
sba(i__main__
Cell
p884
(dp885
g7
I0
sba(i__main__
Cell
p886
(dp887
g7
I0
sba(i__main__
Cell
p888
(dp889
g7
I0
sba(i__main__
Cell
p890
(dp891
g7
I0
sba(i__main__
Cell
p892
(dp893
g7
I0
sba(i__main__
Cell
p894
(dp895
g7
I1
sba(i__main__
Cell
p896
(dp897
g7
I1
sba(i__main__
Cell
p898
(dp899
g7
I0
sba(i__main__
Cell
p900
(dp901
g7
I0
sba(i__main__
Cell
p902
(dp903
g7
I0
sba(i__main__
Cell
p904
(dp905
g7
I0
sba(i__main__
Cell
p906
(dp907
g7
I0
sba(i__main__
Cell
p908
(dp909
g7
I0
sba(i__main__
Cell
p910
(dp911
g7
I0
sba(i__main__
Cell
p912
(dp913
g7
I0
sba(i__main__
Cell
p914
(dp915
g7
I0
sba(i__main__
Cell
p916
(dp917
g7
I0
sba(i__main__
Cell
p918
(dp919
g7
I0
sbaa(lp920
(i__main__
Cell
p921
(dp922
g7
I0
sba(i__main__
Cell
p923
(dp924
g7
I0
sba(i__main__
Cell
p925
(dp926
g7
I0
sba(i__main__
Cell
p927
(dp928
g7
I0
sba(i__main__
Cell
p929
(dp930
g7
I0
sba(i__main__
Cell
p931
(dp932
g7
I0
sba(i__main__
Cell
p933
(dp934
g7
I0
sba(i__main__
Cell
p935
(dp936
g7
I0
sba(i__main__
Cell
p937
(dp938
g7
I0
sba(i__main__
Cell
p939
(dp940
g7
I0
sba(i__main__
Cell
p941
(dp942
g7
I0
sba(i__main__
Cell
p943
(dp944
g7
I0
sba(i__main__
Cell
p945
(dp946
g7
I0
sba(i__main__
Cell
p947
(dp948
g7
I0
sba(i__main__
Cell
p949
(dp950
g7
I0
sba(i__main__
Cell
p951
(dp952
g7
I0
sba(i__main__
Cell
p953
(dp954
g7
I0
sba(i__main__
Cell
p955
(dp956
g7
I0
sba(i__main__
Cell
p957
(dp958
g7
I1
sba(i__main__
Cell
p959
(dp960
g7
I0
sba(i__main__
Cell
p961
(dp962
g7
I0
sba(i__main__
Cell
p963
(dp964
g7
I0
sba(i__main__
Cell
p965
(dp966
g7
I0
sba(i__main__
Cell
p967
(dp968
g7
I0
sba(i__main__
Cell
p969
(dp970
g7
I0
sba(i__main__
Cell
p971
(dp972
g7
I0
sba(i__main__
Cell
p973
(dp974
g7
I0
sba(i__main__
Cell
p975
(dp976
g7
I0
sba(i__main__
Cell
p977
(dp978
g7
I0
sba(i__main__
Cell
p979
(dp980
g7
I0
sbaa(lp981
(i__main__
Cell
p982
(dp983
g7
I0
sba(i__main__
Cell
p984
(dp985
g7
I0
sba(i__main__
Cell
p986
(dp987
g7
I0
sba(i__main__
Cell
p988
(dp989
g7
I0
sba(i__main__
Cell
p990
(dp991
g7
I0
sba(i__main__
Cell
p992
(dp993
g7
I0
sba(i__main__
Cell
p994
(dp995
g7
I0
sba(i__main__
Cell
p996
(dp997
g7
I0
sba(i__main__
Cell
p998
(dp999
g7
I0
sba(i__main__
Cell
p1000
(dp1001
g7
I0
sba(i__main__
Cell
p1002
(dp1003
g7
I0
sba(i__main__
Cell
p1004
(dp1005
g7
I0
sba(i__main__
Cell
p1006
(dp1007
g7
I0
sba(i__main__
Cell
p1008
(dp1009
g7
I0
sba(i__main__
Cell
p1010
(dp1011
g7
I0
sba(i__main__
Cell
p1012
(dp1013
g7
I0
sba(i__main__
Cell
p1014
(dp1015
g7
I0
sba(i__main__
Cell
p1016
(dp1017
g7
I0
sba(i__main__
Cell
p1018
(dp1019
g7
I1
sba(i__main__
Cell
p1020
(dp1021
g7
I0
sba(i__main__
Cell
p1022
(dp1023
g7
I0
sba(i__main__
Cell
p1024
(dp1025
g7
I0
sba(i__main__
Cell
p1026
(dp1027
g7
I0
sba(i__main__
Cell
p1028
(dp1029
g7
I0
sba(i__main__
Cell
p1030
(dp1031
g7
I0
sba(i__main__
Cell
p1032
(dp1033
g7
I0
sba(i__main__
Cell
p1034
(dp1035
g7
I0
sba(i__main__
Cell
p1036
(dp1037
g7
I0
sba(i__main__
Cell
p1038
(dp1039
g7
I0
sba(i__main__
Cell
p1040
(dp1041
g7
I0
sbaa(lp1042
(i__main__
Cell
p1043
(dp1044
g7
I0
sba(i__main__
Cell
p1045
(dp1046
g7
I0
sba(i__main__
Cell
p1047
(dp1048
g7
I0
sba(i__main__
Cell
p1049
(dp1050
g7
I0
sba(i__main__
Cell
p1051
(dp1052
g7
I0
sba(i__main__
Cell
p1053
(dp1054
g7
I0
sba(i__main__
Cell
p1055
(dp1056
g7
I0
sba(i__main__
Cell
p1057
(dp1058
g7
I0
sba(i__main__
Cell
p1059
(dp1060
g7
I0
sba(i__main__
Cell
p1061
(dp1062
g7
I0
sba(i__main__
Cell
p1063
(dp1064
g7
I0
sba(i__main__
Cell
p1065
(dp1066
g7
I0
sba(i__main__
Cell
p1067
(dp1068
g7
I0
sba(i__main__
Cell
p1069
(dp1070
g7
I0
sba(i__main__
Cell
p1071
(dp1072
g7
I0
sba(i__main__
Cell
p1073
(dp1074
g7
I0
sba(i__main__
Cell
p1075
(dp1076
g7
I0
sba(i__main__
Cell
p1077
(dp1078
g7
I0
sba(i__main__
Cell
p1079
(dp1080
g7
I0
sba(i__main__
Cell
p1081
(dp1082
g7
I0
sba(i__main__
Cell
p1083
(dp1084
g7
I0
sba(i__main__
Cell
p1085
(dp1086
g7
I0
sba(i__main__
Cell
p1087
(dp1088
g7
I0
sba(i__main__
Cell
p1089
(dp1090
g7
I0
sba(i__main__
Cell
p1091
(dp1092
g7
I0
sba(i__main__
Cell
p1093
(dp1094
g7
I0
sba(i__main__
Cell
p1095
(dp1096
g7
I0
sba(i__main__
Cell
p1097
(dp1098
g7
I0
sba(i__main__
Cell
p1099
(dp1100
g7
I0
sba(i__main__
Cell
p1101
(dp1102
g7
I0
sbaa(lp1103
(i__main__
Cell
p1104
(dp1105
g7
I0
sba(i__main__
Cell
p1106
(dp1107
g7
I0
sba(i__main__
Cell
p1108
(dp1109
g7
I0
sba(i__main__
Cell
p1110
(dp1111
g7
I0
sba(i__main__
Cell
p1112
(dp1113
g7
I0
sba(i__main__
Cell
p1114
(dp1115
g7
I0
sba(i__main__
Cell
p1116
(dp1117
g7
I0
sba(i__main__
Cell
p1118
(dp1119
g7
I0
sba(i__main__
Cell
p1120
(dp1121
g7
I0
sba(i__main__
Cell
p1122
(dp1123
g7
I0
sba(i__main__
Cell
p1124
(dp1125
g7
I0
sba(i__main__
Cell
p1126
(dp1127
g7
I0
sba(i__main__
Cell
p1128
(dp1129
g7
I0
sba(i__main__
Cell
p1130
(dp1131
g7
I0
sba(i__main__
Cell
p1132
(dp1133
g7
I0
sba(i__main__
Cell
p1134
(dp1135
g7
I0
sba(i__main__
Cell
p1136
(dp1137
g7
I0
sba(i__main__
Cell
p1138
(dp1139
g7
I0
sba(i__main__
Cell
p1140
(dp1141
g7
I0
sba(i__main__
Cell
p1142
(dp1143
g7
I0
sba(i__main__
Cell
p1144
(dp1145
g7
I0
sba(i__main__
Cell
p1146
(dp1147
g7
I0
sba(i__main__
Cell
p1148
(dp1149
g7
I0
sba(i__main__
Cell
p1150
(dp1151
g7
I0
sba(i__main__
Cell
p1152
(dp1153
g7
I0
sba(i__main__
Cell
p1154
(dp1155
g7
I0
sba(i__main__
Cell
p1156
(dp1157
g7
I0
sba(i__main__
Cell
p1158
(dp1159
g7
I0
sba(i__main__
Cell
p1160
(dp1161
g7
I0
sba(i__main__
Cell
p1162
(dp1163
g7
I0
sbaa(lp1164
(i__main__
Cell
p1165
(dp1166
g7
I0
sba(i__main__
Cell
p1167
(dp1168
g7
I0
sba(i__main__
Cell
p1169
(dp1170
g7
I0
sba(i__main__
Cell
p1171
(dp1172
g7
I0
sba(i__main__
Cell
p1173
(dp1174
g7
I0
sba(i__main__
Cell
p1175
(dp1176
g7
I0
sba(i__main__
Cell
p1177
(dp1178
g7
I0
sba(i__main__
Cell
p1179
(dp1180
g7
I0
sba(i__main__
Cell
p1181
(dp1182
g7
I0
sba(i__main__
Cell
p1183
(dp1184
g7
I0
sba(i__main__
Cell
p1185
(dp1186
g7
I0
sba(i__main__
Cell
p1187
(dp1188
g7
I0
sba(i__main__
Cell
p1189
(dp1190
g7
I0
sba(i__main__
Cell
p1191
(dp1192
g7
I0
sba(i__main__
Cell
p1193
(dp1194
g7
I0
sba(i__main__
Cell
p1195
(dp1196
g7
I0
sba(i__main__
Cell
p1197
(dp1198
g7
I0
sba(i__main__
Cell
p1199
(dp1200
g7
I0
sba(i__main__
Cell
p1201
(dp1202
g7
I0
sba(i__main__
Cell
p1203
(dp1204
g7
I0
sba(i__main__
Cell
p1205
(dp1206
g7
I0
sba(i__main__
Cell
p1207
(dp1208
g7
I0
sba(i__main__
Cell
p1209
(dp1210
g7
I0
sba(i__main__
Cell
p1211
(dp1212
g7
I0
sba(i__main__
Cell
p1213
(dp1214
g7
I0
sba(i__main__
Cell
p1215
(dp1216
g7
I0
sba(i__main__
Cell
p1217
(dp1218
g7
I0
sba(i__main__
Cell
p1219
(dp1220
g7
I0
sba(i__main__
Cell
p1221
(dp1222
g7
I0
sba(i__main__
Cell
p1223
(dp1224
g7
I0
sbaa(lp1225
(i__main__
Cell
p1226
(dp1227
g7
I0
sba(i__main__
Cell
p1228
(dp1229
g7
I0
sba(i__main__
Cell
p1230
(dp1231
g7
I0
sba(i__main__
Cell
p1232
(dp1233
g7
I0
sba(i__main__
Cell
p1234
(dp1235
g7
I0
sba(i__main__
Cell
p1236
(dp1237
g7
I0
sba(i__main__
Cell
p1238
(dp1239
g7
I0
sba(i__main__
Cell
p1240
(dp1241
g7
I0
sba(i__main__
Cell
p1242
(dp1243
g7
I0
sba(i__main__
Cell
p1244
(dp1245
g7
I0
sba(i__main__
Cell
p1246
(dp1247
g7
I0
sba(i__main__
Cell
p1248
(dp1249
g7
I0
sba(i__main__
Cell
p1250
(dp1251
g7
I0
sba(i__main__
Cell
p1252
(dp1253
g7
I0
sba(i__main__
Cell
p1254
(dp1255
g7
I0
sba(i__main__
Cell
p1256
(dp1257
g7
I0
sba(i__main__
Cell
p1258
(dp1259
g7
I0
sba(i__main__
Cell
p1260
(dp1261
g7
I0
sba(i__main__
Cell
p1262
(dp1263
g7
I0
sba(i__main__
Cell
p1264
(dp1265
g7
I0
sba(i__main__
Cell
p1266
(dp1267
g7
I0
sba(i__main__
Cell
p1268
(dp1269
g7
I0
sba(i__main__
Cell
p1270
(dp1271
g7
I0
sba(i__main__
Cell
p1272
(dp1273
g7
I0
sba(i__main__
Cell
p1274
(dp1275
g7
I0
sba(i__main__
Cell
p1276
(dp1277
g7
I0
sba(i__main__
Cell
p1278
(dp1279
g7
I0
sba(i__main__
Cell
p1280
(dp1281
g7
I0
sba(i__main__
Cell
p1282
(dp1283
g7
I0
sba(i__main__
Cell
p1284
(dp1285
g7
I0
sbaa(lp1286
(i__main__
Cell
p1287
(dp1288
g7
I0
sba(i__main__
Cell
p1289
(dp1290
g7
I0
sba(i__main__
Cell
p1291
(dp1292
g7
I0
sba(i__main__
Cell
p1293
(dp1294
g7
I0
sba(i__main__
Cell
p1295
(dp1296
g7
I0
sba(i__main__
Cell
p1297
(dp1298
g7
I0
sba(i__main__
Cell
p1299
(dp1300
g7
I0
sba(i__main__
Cell
p1301
(dp1302
g7
I0
sba(i__main__
Cell
p1303
(dp1304
g7
I0
sba(i__main__
Cell
p1305
(dp1306
g7
I0
sba(i__main__
Cell
p1307
(dp1308
g7
I0
sba(i__main__
Cell
p1309
(dp1310
g7
I0
sba(i__main__
Cell
p1311
(dp1312
g7
I0
sba(i__main__
Cell
p1313
(dp1314
g7
I0
sba(i__main__
Cell
p1315
(dp1316
g7
I0
sba(i__main__
Cell
p1317
(dp1318
g7
I0
sba(i__main__
Cell
p1319
(dp1320
g7
I0
sba(i__main__
Cell
p1321
(dp1322
g7
I0
sba(i__main__
Cell
p1323
(dp1324
g7
I0
sba(i__main__
Cell
p1325
(dp1326
g7
I0
sba(i__main__
Cell
p1327
(dp1328
g7
I0
sba(i__main__
Cell
p1329
(dp1330
g7
I0
sba(i__main__
Cell
p1331
(dp1332
g7
I0
sba(i__main__
Cell
p1333
(dp1334
g7
I0
sba(i__main__
Cell
p1335
(dp1336
g7
I0
sba(i__main__
Cell
p1337
(dp1338
g7
I0
sba(i__main__
Cell
p1339
(dp1340
g7
I0
sba(i__main__
Cell
p1341
(dp1342
g7
I0
sba(i__main__
Cell
p1343
(dp1344
g7
I0
sba(i__main__
Cell
p1345
(dp1346
g7
I0
sbaa(lp1347
(i__main__
Cell
p1348
(dp1349
g7
I0
sba(i__main__
Cell
p1350
(dp1351
g7
I0
sba(i__main__
Cell
p1352
(dp1353
g7
I0
sba(i__main__
Cell
p1354
(dp1355
g7
I0
sba(i__main__
Cell
p1356
(dp1357
g7
I0
sba(i__main__
Cell
p1358
(dp1359
g7
I0
sba(i__main__
Cell
p1360
(dp1361
g7
I0
sba(i__main__
Cell
p1362
(dp1363
g7
I0
sba(i__main__
Cell
p1364
(dp1365
g7
I0
sba(i__main__
Cell
p1366
(dp1367
g7
I0
sba(i__main__
Cell
p1368
(dp1369
g7
I0
sba(i__main__
Cell
p1370
(dp1371
g7
I0
sba(i__main__
Cell
p1372
(dp1373
g7
I0
sba(i__main__
Cell
p1374
(dp1375
g7
I0
sba(i__main__
Cell
p1376
(dp1377
g7
I0
sba(i__main__
Cell
p1378
(dp1379
g7
I0
sba(i__main__
Cell
p1380
(dp1381
g7
I0
sba(i__main__
Cell
p1382
(dp1383
g7
I0
sba(i__main__
Cell
p1384
(dp1385
g7
I0
sba(i__main__
Cell
p1386
(dp1387
g7
I0
sba(i__main__
Cell
p1388
(dp1389
g7
I0
sba(i__main__
Cell
p1390
(dp1391
g7
I0
sba(i__main__
Cell
p1392
(dp1393
g7
I0
sba(i__main__
Cell
p1394
(dp1395
g7
I0
sba(i__main__
Cell
p1396
(dp1397
g7
I0
sba(i__main__
Cell
p1398
(dp1399
g7
I0
sba(i__main__
Cell
p1400
(dp1401
g7
I0
sba(i__main__
Cell
p1402
(dp1403
g7
I0
sba(i__main__
Cell
p1404
(dp1405
g7
I0
sba(i__main__
Cell
p1406
(dp1407
g7
I0
sbaa(lp1408
(i__main__
Cell
p1409
(dp1410
g7
I0
sba(i__main__
Cell
p1411
(dp1412
g7
I0
sba(i__main__
Cell
p1413
(dp1414
g7
I0
sba(i__main__
Cell
p1415
(dp1416
g7
I0
sba(i__main__
Cell
p1417
(dp1418
g7
I0
sba(i__main__
Cell
p1419
(dp1420
g7
I0
sba(i__main__
Cell
p1421
(dp1422
g7
I0
sba(i__main__
Cell
p1423
(dp1424
g7
I0
sba(i__main__
Cell
p1425
(dp1426
g7
I0
sba(i__main__
Cell
p1427
(dp1428
g7
I0
sba(i__main__
Cell
p1429
(dp1430
g7
I0
sba(i__main__
Cell
p1431
(dp1432
g7
I0
sba(i__main__
Cell
p1433
(dp1434
g7
I0
sba(i__main__
Cell
p1435
(dp1436
g7
I0
sba(i__main__
Cell
p1437
(dp1438
g7
I0
sba(i__main__
Cell
p1439
(dp1440
g7
I0
sba(i__main__
Cell
p1441
(dp1442
g7
I0
sba(i__main__
Cell
p1443
(dp1444
g7
I0
sba(i__main__
Cell
p1445
(dp1446
g7
I0
sba(i__main__
Cell
p1447
(dp1448
g7
I0
sba(i__main__
Cell
p1449
(dp1450
g7
I0
sba(i__main__
Cell
p1451
(dp1452
g7
I0
sba(i__main__
Cell
p1453
(dp1454
g7
I0
sba(i__main__
Cell
p1455
(dp1456
g7
I0
sba(i__main__
Cell
p1457
(dp1458
g7
I0
sba(i__main__
Cell
p1459
(dp1460
g7
I0
sba(i__main__
Cell
p1461
(dp1462
g7
I0
sba(i__main__
Cell
p1463
(dp1464
g7
I0
sba(i__main__
Cell
p1465
(dp1466
g7
I0
sba(i__main__
Cell
p1467
(dp1468
g7
I0
sbaa(lp1469
(i__main__
Cell
p1470
(dp1471
g7
I0
sba(i__main__
Cell
p1472
(dp1473
g7
I0
sba(i__main__
Cell
p1474
(dp1475
g7
I0
sba(i__main__
Cell
p1476
(dp1477
g7
I0
sba(i__main__
Cell
p1478
(dp1479
g7
I0
sba(i__main__
Cell
p1480
(dp1481
g7
I0
sba(i__main__
Cell
p1482
(dp1483
g7
I0
sba(i__main__
Cell
p1484
(dp1485
g7
I0
sba(i__main__
Cell
p1486
(dp1487
g7
I0
sba(i__main__
Cell
p1488
(dp1489
g7
I0
sba(i__main__
Cell
p1490
(dp1491
g7
I0
sba(i__main__
Cell
p1492
(dp1493
g7
I0
sba(i__main__
Cell
p1494
(dp1495
g7
I0
sba(i__main__
Cell
p1496
(dp1497
g7
I0
sba(i__main__
Cell
p1498
(dp1499
g7
I0
sba(i__main__
Cell
p1500
(dp1501
g7
I0
sba(i__main__
Cell
p1502
(dp1503
g7
I0
sba(i__main__
Cell
p1504
(dp1505
g7
I0
sba(i__main__
Cell
p1506
(dp1507
g7
I0
sba(i__main__
Cell
p1508
(dp1509
g7
I0
sba(i__main__
Cell
p1510
(dp1511
g7
I0
sba(i__main__
Cell
p1512
(dp1513
g7
I0
sba(i__main__
Cell
p1514
(dp1515
g7
I0
sba(i__main__
Cell
p1516
(dp1517
g7
I0
sba(i__main__
Cell
p1518
(dp1519
g7
I0
sba(i__main__
Cell
p1520
(dp1521
g7
I0
sba(i__main__
Cell
p1522
(dp1523
g7
I0
sba(i__main__
Cell
p1524
(dp1525
g7
I0
sba(i__main__
Cell
p1526
(dp1527
g7
I0
sba(i__main__
Cell
p1528
(dp1529
g7
I0
sbaa(lp1530
(i__main__
Cell
p1531
(dp1532
g7
I0
sba(i__main__
Cell
p1533
(dp1534
g7
I0
sba(i__main__
Cell
p1535
(dp1536
g7
I0
sba(i__main__
Cell
p1537
(dp1538
g7
I0
sba(i__main__
Cell
p1539
(dp1540
g7
I0
sba(i__main__
Cell
p1541
(dp1542
g7
I0
sba(i__main__
Cell
p1543
(dp1544
g7
I0
sba(i__main__
Cell
p1545
(dp1546
g7
I0
sba(i__main__
Cell
p1547
(dp1548
g7
I0
sba(i__main__
Cell
p1549
(dp1550
g7
I0
sba(i__main__
Cell
p1551
(dp1552
g7
I0
sba(i__main__
Cell
p1553
(dp1554
g7
I0
sba(i__main__
Cell
p1555
(dp1556
g7
I0
sba(i__main__
Cell
p1557
(dp1558
g7
I0
sba(i__main__
Cell
p1559
(dp1560
g7
I0
sba(i__main__
Cell
p1561
(dp1562
g7
I0
sba(i__main__
Cell
p1563
(dp1564
g7
I0
sba(i__main__
Cell
p1565
(dp1566
g7
I0
sba(i__main__
Cell
p1567
(dp1568
g7
I0
sba(i__main__
Cell
p1569
(dp1570
g7
I0
sba(i__main__
Cell
p1571
(dp1572
g7
I0
sba(i__main__
Cell
p1573
(dp1574
g7
I0
sba(i__main__
Cell
p1575
(dp1576
g7
I0
sba(i__main__
Cell
p1577
(dp1578
g7
I0
sba(i__main__
Cell
p1579
(dp1580
g7
I0
sba(i__main__
Cell
p1581
(dp1582
g7
I0
sba(i__main__
Cell
p1583
(dp1584
g7
I0
sba(i__main__
Cell
p1585
(dp1586
g7
I0
sba(i__main__
Cell
p1587
(dp1588
g7
I0
sba(i__main__
Cell
p1589
(dp1590
g7
I0
sbaa(lp1591
(i__main__
Cell
p1592
(dp1593
g7
I0
sba(i__main__
Cell
p1594
(dp1595
g7
I0
sba(i__main__
Cell
p1596
(dp1597
g7
I0
sba(i__main__
Cell
p1598
(dp1599
g7
I0
sba(i__main__
Cell
p1600
(dp1601
g7
I0
sba(i__main__
Cell
p1602
(dp1603
g7
I0
sba(i__main__
Cell
p1604
(dp1605
g7
I0
sba(i__main__
Cell
p1606
(dp1607
g7
I0
sba(i__main__
Cell
p1608
(dp1609
g7
I0
sba(i__main__
Cell
p1610
(dp1611
g7
I0
sba(i__main__
Cell
p1612
(dp1613
g7
I0
sba(i__main__
Cell
p1614
(dp1615
g7
I0
sba(i__main__
Cell
p1616
(dp1617
g7
I0
sba(i__main__
Cell
p1618
(dp1619
g7
I0
sba(i__main__
Cell
p1620
(dp1621
g7
I0
sba(i__main__
Cell
p1622
(dp1623
g7
I0
sba(i__main__
Cell
p1624
(dp1625
g7
I0
sba(i__main__
Cell
p1626
(dp1627
g7
I0
sba(i__main__
Cell
p1628
(dp1629
g7
I0
sba(i__main__
Cell
p1630
(dp1631
g7
I0
sba(i__main__
Cell
p1632
(dp1633
g7
I0
sba(i__main__
Cell
p1634
(dp1635
g7
I0
sba(i__main__
Cell
p1636
(dp1637
g7
I0
sba(i__main__
Cell
p1638
(dp1639
g7
I0
sba(i__main__
Cell
p1640
(dp1641
g7
I0
sba(i__main__
Cell
p1642
(dp1643
g7
I0
sba(i__main__
Cell
p1644
(dp1645
g7
I0
sba(i__main__
Cell
p1646
(dp1647
g7
I0
sba(i__main__
Cell
p1648
(dp1649
g7
I0
sba(i__main__
Cell
p1650
(dp1651
g7
I0
sbaa(lp1652
(i__main__
Cell
p1653
(dp1654
g7
I0
sba(i__main__
Cell
p1655
(dp1656
g7
I0
sba(i__main__
Cell
p1657
(dp1658
g7
I0
sba(i__main__
Cell
p1659
(dp1660
g7
I0
sba(i__main__
Cell
p1661
(dp1662
g7
I0
sba(i__main__
Cell
p1663
(dp1664
g7
I0
sba(i__main__
Cell
p1665
(dp1666
g7
I0
sba(i__main__
Cell
p1667
(dp1668
g7
I0
sba(i__main__
Cell
p1669
(dp1670
g7
I0
sba(i__main__
Cell
p1671
(dp1672
g7
I0
sba(i__main__
Cell
p1673
(dp1674
g7
I0
sba(i__main__
Cell
p1675
(dp1676
g7
I0
sba(i__main__
Cell
p1677
(dp1678
g7
I0
sba(i__main__
Cell
p1679
(dp1680
g7
I0
sba(i__main__
Cell
p1681
(dp1682
g7
I0
sba(i__main__
Cell
p1683
(dp1684
g7
I0
sba(i__main__
Cell
p1685
(dp1686
g7
I0
sba(i__main__
Cell
p1687
(dp1688
g7
I0
sba(i__main__
Cell
p1689
(dp1690
g7
I0
sba(i__main__
Cell
p1691
(dp1692
g7
I0
sba(i__main__
Cell
p1693
(dp1694
g7
I0
sba(i__main__
Cell
p1695
(dp1696
g7
I0
sba(i__main__
Cell
p1697
(dp1698
g7
I0
sba(i__main__
Cell
p1699
(dp1700
g7
I0
sba(i__main__
Cell
p1701
(dp1702
g7
I0
sba(i__main__
Cell
p1703
(dp1704
g7
I0
sba(i__main__
Cell
p1705
(dp1706
g7
I0
sba(i__main__
Cell
p1707
(dp1708
g7
I0
sba(i__main__
Cell
p1709
(dp1710
g7
I0
sba(i__main__
Cell
p1711
(dp1712
g7
I0
sbaa(lp1713
(i__main__
Cell
p1714
(dp1715
g7
I0
sba(i__main__
Cell
p1716
(dp1717
g7
I0
sba(i__main__
Cell
p1718
(dp1719
g7
I0
sba(i__main__
Cell
p1720
(dp1721
g7
I0
sba(i__main__
Cell
p1722
(dp1723
g7
I0
sba(i__main__
Cell
p1724
(dp1725
g7
I0
sba(i__main__
Cell
p1726
(dp1727
g7
I0
sba(i__main__
Cell
p1728
(dp1729
g7
I0
sba(i__main__
Cell
p1730
(dp1731
g7
I0
sba(i__main__
Cell
p1732
(dp1733
g7
I0
sba(i__main__
Cell
p1734
(dp1735
g7
I0
sba(i__main__
Cell
p1736
(dp1737
g7
I0
sba(i__main__
Cell
p1738
(dp1739
g7
I0
sba(i__main__
Cell
p1740
(dp1741
g7
I0
sba(i__main__
Cell
p1742
(dp1743
g7
I0
sba(i__main__
Cell
p1744
(dp1745
g7
I0
sba(i__main__
Cell
p1746
(dp1747
g7
I0
sba(i__main__
Cell
p1748
(dp1749
g7
I0
sba(i__main__
Cell
p1750
(dp1751
g7
I0
sba(i__main__
Cell
p1752
(dp1753
g7
I0
sba(i__main__
Cell
p1754
(dp1755
g7
I0
sba(i__main__
Cell
p1756
(dp1757
g7
I0
sba(i__main__
Cell
p1758
(dp1759
g7
I0
sba(i__main__
Cell
p1760
(dp1761
g7
I0
sba(i__main__
Cell
p1762
(dp1763
g7
I0
sba(i__main__
Cell
p1764
(dp1765
g7
I0
sba(i__main__
Cell
p1766
(dp1767
g7
I0
sba(i__main__
Cell
p1768
(dp1769
g7
I0
sba(i__main__
Cell
p1770
(dp1771
g7
I0
sba(i__main__
Cell
p1772
(dp1773
g7
I0
sbaa(lp1774
(i__main__
Cell
p1775
(dp1776
g7
I0
sba(i__main__
Cell
p1777
(dp1778
g7
I0
sba(i__main__
Cell
p1779
(dp1780
g7
I0
sba(i__main__
Cell
p1781
(dp1782
g7
I0
sba(i__main__
Cell
p1783
(dp1784
g7
I0
sba(i__main__
Cell
p1785
(dp1786
g7
I0
sba(i__main__
Cell
p1787
(dp1788
g7
I0
sba(i__main__
Cell
p1789
(dp1790
g7
I0
sba(i__main__
Cell
p1791
(dp1792
g7
I0
sba(i__main__
Cell
p1793
(dp1794
g7
I0
sba(i__main__
Cell
p1795
(dp1796
g7
I0
sba(i__main__
Cell
p1797
(dp1798
g7
I0
sba(i__main__
Cell
p1799
(dp1800
g7
I0
sba(i__main__
Cell
p1801
(dp1802
g7
I0
sba(i__main__
Cell
p1803
(dp1804
g7
I0
sba(i__main__
Cell
p1805
(dp1806
g7
I0
sba(i__main__
Cell
p1807
(dp1808
g7
I0
sba(i__main__
Cell
p1809
(dp1810
g7
I0
sba(i__main__
Cell
p1811
(dp1812
g7
I0
sba(i__main__
Cell
p1813
(dp1814
g7
I0
sba(i__main__
Cell
p1815
(dp1816
g7
I0
sba(i__main__
Cell
p1817
(dp1818
g7
I0
sba(i__main__
Cell
p1819
(dp1820
g7
I0
sba(i__main__
Cell
p1821
(dp1822
g7
I0
sba(i__main__
Cell
p1823
(dp1824
g7
I0
sba(i__main__
Cell
p1825
(dp1826
g7
I0
sba(i__main__
Cell
p1827
(dp1828
g7
I0
sba(i__main__
Cell
p1829
(dp1830
g7
I0
sba(i__main__
Cell
p1831
(dp1832
g7
I0
sba(i__main__
Cell
p1833
(dp1834
g7
I2
sbaa(lp1835
(i__main__
Cell
p1836
(dp1837
g7
I0
sba(i__main__
Cell
p1838
(dp1839
g7
I0
sba(i__main__
Cell
p1840
(dp1841
g7
I0
sba(i__main__
Cell
p1842
(dp1843
g7
I0
sba(i__main__
Cell
p1844
(dp1845
g7
I0
sba(i__main__
Cell
p1846
(dp1847
g7
I0
sba(i__main__
Cell
p1848
(dp1849
g7
I0
sba(i__main__
Cell
p1850
(dp1851
g7
I0
sba(i__main__
Cell
p1852
(dp1853
g7
I0
sba(i__main__
Cell
p1854
(dp1855
g7
I0
sba(i__main__
Cell
p1856
(dp1857
g7
I0
sba(i__main__
Cell
p1858
(dp1859
g7
I0
sba(i__main__
Cell
p1860
(dp1861
g7
I0
sba(i__main__
Cell
p1862
(dp1863
g7
I0
sba(i__main__
Cell
p1864
(dp1865
g7
I0
sba(i__main__
Cell
p1866
(dp1867
g7
I0
sba(i__main__
Cell
p1868
(dp1869
g7
I0
sba(i__main__
Cell
p1870
(dp1871
g7
I0
sba(i__main__
Cell
p1872
(dp1873
g7
I0
sba(i__main__
Cell
p1874
(dp1875
g7
I0
sba(i__main__
Cell
p1876
(dp1877
g7
I0
sba(i__main__
Cell
p1878
(dp1879
g7
I0
sba(i__main__
Cell
p1880
(dp1881
g7
I2
sba(i__main__
Cell
p1882
(dp1883
g7
I2
sba(i__main__
Cell
p1884
(dp1885
g7
I0
sba(i__main__
Cell
p1886
(dp1887
g7
I2
sba(i__main__
Cell
p1888
(dp1889
g7
I2
sba(i__main__
Cell
p1890
(dp1891
g7
I0
sba(i__main__
Cell
p1892
(dp1893
g7
I2
sba(i__main__
Cell
p1894
(dp1895
g7
I2
sbaa(lp1896
(i__main__
Cell
p1897
(dp1898
g7
I0
sba(i__main__
Cell
p1899
(dp1900
g7
I0
sba(i__main__
Cell
p1901
(dp1902
g7
I0
sba(i__main__
Cell
p1903
(dp1904
g7
I0
sba(i__main__
Cell
p1905
(dp1906
g7
I0
sba(i__main__
Cell
p1907
(dp1908
g7
I0
sba(i__main__
Cell
p1909
(dp1910
g7
I0
sba(i__main__
Cell
p1911
(dp1912
g7
I0
sba(i__main__
Cell
p1913
(dp1914
g7
I0
sba(i__main__
Cell
p1915
(dp1916
g7
I0
sba(i__main__
Cell
p1917
(dp1918
g7
I0
sba(i__main__
Cell
p1919
(dp1920
g7
I0
sba(i__main__
Cell
p1921
(dp1922
g7
I0
sba(i__main__
Cell
p1923
(dp1924
g7
I0
sba(i__main__
Cell
p1925
(dp1926
g7
I0
sba(i__main__
Cell
p1927
(dp1928
g7
I0
sba(i__main__
Cell
p1929
(dp1930
g7
I0
sba(i__main__
Cell
p1931
(dp1932
g7
I0
sba(i__main__
Cell
p1933
(dp1934
g7
I0
sba(i__main__
Cell
p1935
(dp1936
g7
I0
sba(i__main__
Cell
p1937
(dp1938
g7
I0
sba(i__main__
Cell
p1939
(dp1940
g7
I2
sba(i__main__
Cell
p1941
(dp1942
g7
I2
sba(i__main__
Cell
p1943
(dp1944
g7
I2
sba(i__main__
Cell
p1945
(dp1946
g7
I2
sba(i__main__
Cell
p1947
(dp1948
g7
I2
sba(i__main__
Cell
p1949
(dp1950
g7
I2
sba(i__main__
Cell
p1951
(dp1952
g7
I2
sba(i__main__
Cell
p1953
(dp1954
g7
I2
sba(i__main__
Cell
p1955
(dp1956
g7
I2
sbaa(lp1957
(i__main__
Cell
p1958
(dp1959
g7
I0
sba(i__main__
Cell
p1960
(dp1961
g7
I0
sba(i__main__
Cell
p1962
(dp1963
g7
I0
sba(i__main__
Cell
p1964
(dp1965
g7
I0
sba(i__main__
Cell
p1966
(dp1967
g7
I0
sba(i__main__
Cell
p1968
(dp1969
g7
I0
sba(i__main__
Cell
p1970
(dp1971
g7
I0
sba(i__main__
Cell
p1972
(dp1973
g7
I0
sba(i__main__
Cell
p1974
(dp1975
g7
I0
sba(i__main__
Cell
p1976
(dp1977
g7
I0
sba(i__main__
Cell
p1978
(dp1979
g7
I0
sba(i__main__
Cell
p1980
(dp1981
g7
I0
sba(i__main__
Cell
p1982
(dp1983
g7
I0
sba(i__main__
Cell
p1984
(dp1985
g7
I0
sba(i__main__
Cell
p1986
(dp1987
g7
I0
sba(i__main__
Cell
p1988
(dp1989
g7
I0
sba(i__main__
Cell
p1990
(dp1991
g7
I0
sba(i__main__
Cell
p1992
(dp1993
g7
I0
sba(i__main__
Cell
p1994
(dp1995
g7
I0
sba(i__main__
Cell
p1996
(dp1997
g7
I0
sba(i__main__
Cell
p1998
(dp1999
g7
I2
sba(i__main__
Cell
p2000
(dp2001
g7
I2
sba(i__main__
Cell
p2002
(dp2003
g7
I2
sba(i__main__
Cell
p2004
(dp2005
g7
I2
sba(i__main__
Cell
p2006
(dp2007
g7
I2
sba(i__main__
Cell
p2008
(dp2009
g7
I2
sba(i__main__
Cell
p2010
(dp2011
g7
I2
sba(i__main__
Cell
p2012
(dp2013
g7
I2
sba(i__main__
Cell
p2014
(dp2015
g7
I2
sba(i__main__
Cell
p2016
(dp2017
g7
I2
sbaa(lp2018
(i__main__
Cell
p2019
(dp2020
g7
I0
sba(i__main__
Cell
p2021
(dp2022
g7
I0
sba(i__main__
Cell
p2023
(dp2024
g7
I0
sba(i__main__
Cell
p2025
(dp2026
g7
I0
sba(i__main__
Cell
p2027
(dp2028
g7
I0
sba(i__main__
Cell
p2029
(dp2030
g7
I0
sba(i__main__
Cell
p2031
(dp2032
g7
I0
sba(i__main__
Cell
p2033
(dp2034
g7
I0
sba(i__main__
Cell
p2035
(dp2036
g7
I0
sba(i__main__
Cell
p2037
(dp2038
g7
I0
sba(i__main__
Cell
p2039
(dp2040
g7
I0
sba(i__main__
Cell
p2041
(dp2042
g7
I0
sba(i__main__
Cell
p2043
(dp2044
g7
I0
sba(i__main__
Cell
p2045
(dp2046
g7
I0
sba(i__main__
Cell
p2047
(dp2048
g7
I0
sba(i__main__
Cell
p2049
(dp2050
g7
I0
sba(i__main__
Cell
p2051
(dp2052
g7
I0
sba(i__main__
Cell
p2053
(dp2054
g7
I0
sba(i__main__
Cell
p2055
(dp2056
g7
I0
sba(i__main__
Cell
p2057
(dp2058
g7
I0
sba(i__main__
Cell
p2059
(dp2060
g7
I2
sba(i__main__
Cell
p2061
(dp2062
g7
I2
sba(i__main__
Cell
p2063
(dp2064
g7
I2
sba(i__main__
Cell
p2065
(dp2066
g7
I2
sba(i__main__
Cell
p2067
(dp2068
g7
I2
sba(i__main__
Cell
p2069
(dp2070
g7
I2
sba(i__main__
Cell
p2071
(dp2072
g7
I2
sba(i__main__
Cell
p2073
(dp2074
g7
I2
sba(i__main__
Cell
p2075
(dp2076
g7
I2
sba(i__main__
Cell
p2077
(dp2078
g7
I2
sbaa(lp2079
(i__main__
Cell
p2080
(dp2081
g7
I0
sba(i__main__
Cell
p2082
(dp2083
g7
I0
sba(i__main__
Cell
p2084
(dp2085
g7
I0
sba(i__main__
Cell
p2086
(dp2087
g7
I0
sba(i__main__
Cell
p2088
(dp2089
g7
I0
sba(i__main__
Cell
p2090
(dp2091
g7
I0
sba(i__main__
Cell
p2092
(dp2093
g7
I0
sba(i__main__
Cell
p2094
(dp2095
g7
I0
sba(i__main__
Cell
p2096
(dp2097
g7
I0
sba(i__main__
Cell
p2098
(dp2099
g7
I0
sba(i__main__
Cell
p2100
(dp2101
g7
I0
sba(i__main__
Cell
p2102
(dp2103
g7
I0
sba(i__main__
Cell
p2104
(dp2105
g7
I0
sba(i__main__
Cell
p2106
(dp2107
g7
I0
sba(i__main__
Cell
p2108
(dp2109
g7
I0
sba(i__main__
Cell
p2110
(dp2111
g7
I0
sba(i__main__
Cell
p2112
(dp2113
g7
I0
sba(i__main__
Cell
p2114
(dp2115
g7
I0
sba(i__main__
Cell
p2116
(dp2117
g7
I0
sba(i__main__
Cell
p2118
(dp2119
g7
I0
sba(i__main__
Cell
p2120
(dp2121
g7
I2
sba(i__main__
Cell
p2122
(dp2123
g7
I2
sba(i__main__
Cell
p2124
(dp2125
g7
I2
sba(i__main__
Cell
p2126
(dp2127
g7
I2
sba(i__main__
Cell
p2128
(dp2129
g7
I2
sba(i__main__
Cell
p2130
(dp2131
g7
I2
sba(i__main__
Cell
p2132
(dp2133
g7
I2
sba(i__main__
Cell
p2134
(dp2135
g7
I2
sba(i__main__
Cell
p2136
(dp2137
g7
I2
sba(i__main__
Cell
p2138
(dp2139
g7
I2
sbaa(lp2140
(i__main__
Cell
p2141
(dp2142
g7
I0
sba(i__main__
Cell
p2143
(dp2144
g7
I0
sba(i__main__
Cell
p2145
(dp2146
g7
I0
sba(i__main__
Cell
p2147
(dp2148
g7
I0
sba(i__main__
Cell
p2149
(dp2150
g7
I0
sba(i__main__
Cell
p2151
(dp2152
g7
I0
sba(i__main__
Cell
p2153
(dp2154
g7
I0
sba(i__main__
Cell
p2155
(dp2156
g7
I0
sba(i__main__
Cell
p2157
(dp2158
g7
I0
sba(i__main__
Cell
p2159
(dp2160
g7
I0
sba(i__main__
Cell
p2161
(dp2162
g7
I0
sba(i__main__
Cell
p2163
(dp2164
g7
I0
sba(i__main__
Cell
p2165
(dp2166
g7
I0
sba(i__main__
Cell
p2167
(dp2168
g7
I0
sba(i__main__
Cell
p2169
(dp2170
g7
I0
sba(i__main__
Cell
p2171
(dp2172
g7
I0
sba(i__main__
Cell
p2173
(dp2174
g7
I0
sba(i__main__
Cell
p2175
(dp2176
g7
I0
sba(i__main__
Cell
p2177
(dp2178
g7
I0
sba(i__main__
Cell
p2179
(dp2180
g7
I0
sba(i__main__
Cell
p2181
(dp2182
g7
I0
sba(i__main__
Cell
p2183
(dp2184
g7
I2
sba(i__main__
Cell
p2185
(dp2186
g7
I2
sba(i__main__
Cell
p2187
(dp2188
g7
I2
sba(i__main__
Cell
p2189
(dp2190
g7
I2
sba(i__main__
Cell
p2191
(dp2192
g7
I2
sba(i__main__
Cell
p2193
(dp2194
g7
I2
sba(i__main__
Cell
p2195
(dp2196
g7
I2
sba(i__main__
Cell
p2197
(dp2198
g7
I2
sba(i__main__
Cell
p2199
(dp2200
g7
I2
sbaa(lp2201
(i__main__
Cell
p2202
(dp2203
g7
I0
sba(i__main__
Cell
p2204
(dp2205
g7
I0
sba(i__main__
Cell
p2206
(dp2207
g7
I0
sba(i__main__
Cell
p2208
(dp2209
g7
I0
sba(i__main__
Cell
p2210
(dp2211
g7
I0
sba(i__main__
Cell
p2212
(dp2213
g7
I0
sba(i__main__
Cell
p2214
(dp2215
g7
I0
sba(i__main__
Cell
p2216
(dp2217
g7
I0
sba(i__main__
Cell
p2218
(dp2219
g7
I0
sba(i__main__
Cell
p2220
(dp2221
g7
I0
sba(i__main__
Cell
p2222
(dp2223
g7
I0
sba(i__main__
Cell
p2224
(dp2225
g7
I0
sba(i__main__
Cell
p2226
(dp2227
g7
I0
sba(i__main__
Cell
p2228
(dp2229
g7
I0
sba(i__main__
Cell
p2230
(dp2231
g7
I0
sba(i__main__
Cell
p2232
(dp2233
g7
I0
sba(i__main__
Cell
p2234
(dp2235
g7
I0
sba(i__main__
Cell
p2236
(dp2237
g7
I0
sba(i__main__
Cell
p2238
(dp2239
g7
I0
sba(i__main__
Cell
p2240
(dp2241
g7
I0
sba(i__main__
Cell
p2242
(dp2243
g7
I2
sba(i__main__
Cell
p2244
(dp2245
g7
I2
sba(i__main__
Cell
p2246
(dp2247
g7
I2
sba(i__main__
Cell
p2248
(dp2249
g7
I2
sba(i__main__
Cell
p2250
(dp2251
g7
I2
sba(i__main__
Cell
p2252
(dp2253
g7
I2
sba(i__main__
Cell
p2254
(dp2255
g7
I2
sba(i__main__
Cell
p2256
(dp2257
g7
I2
sba(i__main__
Cell
p2258
(dp2259
g7
I2
sba(i__main__
Cell
p2260
(dp2261
g7
I2
sbaa(lp2262
(i__main__
Cell
p2263
(dp2264
g7
I0
sba(i__main__
Cell
p2265
(dp2266
g7
I0
sba(i__main__
Cell
p2267
(dp2268
g7
I0
sba(i__main__
Cell
p2269
(dp2270
g7
I0
sba(i__main__
Cell
p2271
(dp2272
g7
I0
sba(i__main__
Cell
p2273
(dp2274
g7
I0
sba(i__main__
Cell
p2275
(dp2276
g7
I0
sba(i__main__
Cell
p2277
(dp2278
g7
I0
sba(i__main__
Cell
p2279
(dp2280
g7
I0
sba(i__main__
Cell
p2281
(dp2282
g7
I0
sba(i__main__
Cell
p2283
(dp2284
g7
I0
sba(i__main__
Cell
p2285
(dp2286
g7
I0
sba(i__main__
Cell
p2287
(dp2288
g7
I0
sba(i__main__
Cell
p2289
(dp2290
g7
I0
sba(i__main__
Cell
p2291
(dp2292
g7
I0
sba(i__main__
Cell
p2293
(dp2294
g7
I0
sba(i__main__
Cell
p2295
(dp2296
g7
I0
sba(i__main__
Cell
p2297
(dp2298
g7
I0
sba(i__main__
Cell
p2299
(dp2300
g7
I0
sba(i__main__
Cell
p2301
(dp2302
g7
I0
sba(i__main__
Cell
p2303
(dp2304
g7
I2
sba(i__main__
Cell
p2305
(dp2306
g7
I2
sba(i__main__
Cell
p2307
(dp2308
g7
I2
sba(i__main__
Cell
p2309
(dp2310
g7
I2
sba(i__main__
Cell
p2311
(dp2312
g7
I2
sba(i__main__
Cell
p2313
(dp2314
g7
I2
sba(i__main__
Cell
p2315
(dp2316
g7
I2
sba(i__main__
Cell
p2317
(dp2318
g7
I2
sba(i__main__
Cell
p2319
(dp2320
g7
I2
sba(i__main__
Cell
p2321
(dp2322
g7
I2
sbaa(lp2323
(i__main__
Cell
p2324
(dp2325
g7
I0
sba(i__main__
Cell
p2326
(dp2327
g7
I0
sba(i__main__
Cell
p2328
(dp2329
g7
I0
sba(i__main__
Cell
p2330
(dp2331
g7
I0
sba(i__main__
Cell
p2332
(dp2333
g7
I0
sba(i__main__
Cell
p2334
(dp2335
g7
I0
sba(i__main__
Cell
p2336
(dp2337
g7
I0
sba(i__main__
Cell
p2338
(dp2339
g7
I0
sba(i__main__
Cell
p2340
(dp2341
g7
I0
sba(i__main__
Cell
p2342
(dp2343
g7
I0
sba(i__main__
Cell
p2344
(dp2345
g7
I0
sba(i__main__
Cell
p2346
(dp2347
g7
I0
sba(i__main__
Cell
p2348
(dp2349
g7
I0
sba(i__main__
Cell
p2350
(dp2351
g7
I0
sba(i__main__
Cell
p2352
(dp2353
g7
I0
sba(i__main__
Cell
p2354
(dp2355
g7
I0
sba(i__main__
Cell
p2356
(dp2357
g7
I0
sba(i__main__
Cell
p2358
(dp2359
g7
I0
sba(i__main__
Cell
p2360
(dp2361
g7
I0
sba(i__main__
Cell
p2362
(dp2363
g7
I2
sba(i__main__
Cell
p2364
(dp2365
g7
I2
sba(i__main__
Cell
p2366
(dp2367
g7
I2
sba(i__main__
Cell
p2368
(dp2369
g7
I2
sba(i__main__
Cell
p2370
(dp2371
g7
I2
sba(i__main__
Cell
p2372
(dp2373
g7
I2
sba(i__main__
Cell
p2374
(dp2375
g7
I2
sba(i__main__
Cell
p2376
(dp2377
g7
I2
sba(i__main__
Cell
p2378
(dp2379
g7
I2
sba(i__main__
Cell
p2380
(dp2381
g7
I2
sba(i__main__
Cell
p2382
(dp2383
g7
I2
sbaa(lp2384
(i__main__
Cell
p2385
(dp2386
g7
I0
sba(i__main__
Cell
p2387
(dp2388
g7
I0
sba(i__main__
Cell
p2389
(dp2390
g7
I0
sba(i__main__
Cell
p2391
(dp2392
g7
I0
sba(i__main__
Cell
p2393
(dp2394
g7
I0
sba(i__main__
Cell
p2395
(dp2396
g7
I0
sba(i__main__
Cell
p2397
(dp2398
g7
I0
sba(i__main__
Cell
p2399
(dp2400
g7
I0
sba(i__main__
Cell
p2401
(dp2402
g7
I0
sba(i__main__
Cell
p2403
(dp2404
g7
I0
sba(i__main__
Cell
p2405
(dp2406
g7
I0
sba(i__main__
Cell
p2407
(dp2408
g7
I0
sba(i__main__
Cell
p2409
(dp2410
g7
I0
sba(i__main__
Cell
p2411
(dp2412
g7
I0
sba(i__main__
Cell
p2413
(dp2414
g7
I0
sba(i__main__
Cell
p2415
(dp2416
g7
I0
sba(i__main__
Cell
p2417
(dp2418
g7
I0
sba(i__main__
Cell
p2419
(dp2420
g7
I0
sba(i__main__
Cell
p2421
(dp2422
g7
I0
sba(i__main__
Cell
p2423
(dp2424
g7
I2
sba(i__main__
Cell
p2425
(dp2426
g7
I2
sba(i__main__
Cell
p2427
(dp2428
g7
I2
sba(i__main__
Cell
p2429
(dp2430
g7
I2
sba(i__main__
Cell
p2431
(dp2432
g7
I2
sba(i__main__
Cell
p2433
(dp2434
g7
I2
sba(i__main__
Cell
p2435
(dp2436
g7
I2
sba(i__main__
Cell
p2437
(dp2438
g7
I2
sba(i__main__
Cell
p2439
(dp2440
g7
I2
sba(i__main__
Cell
p2441
(dp2442
g7
I2
sba(i__main__
Cell
p2443
(dp2444
g7
I2
sbaa(lp2445
(i__main__
Cell
p2446
(dp2447
g7
I0
sba(i__main__
Cell
p2448
(dp2449
g7
I0
sba(i__main__
Cell
p2450
(dp2451
g7
I0
sba(i__main__
Cell
p2452
(dp2453
g7
I0
sba(i__main__
Cell
p2454
(dp2455
g7
I0
sba(i__main__
Cell
p2456
(dp2457
g7
I0
sba(i__main__
Cell
p2458
(dp2459
g7
I0
sba(i__main__
Cell
p2460
(dp2461
g7
I0
sba(i__main__
Cell
p2462
(dp2463
g7
I0
sba(i__main__
Cell
p2464
(dp2465
g7
I0
sba(i__main__
Cell
p2466
(dp2467
g7
I0
sba(i__main__
Cell
p2468
(dp2469
g7
I0
sba(i__main__
Cell
p2470
(dp2471
g7
I0
sba(i__main__
Cell
p2472
(dp2473
g7
I0
sba(i__main__
Cell
p2474
(dp2475
g7
I0
sba(i__main__
Cell
p2476
(dp2477
g7
I0
sba(i__main__
Cell
p2478
(dp2479
g7
I0
sba(i__main__
Cell
p2480
(dp2481
g7
I0
sba(i__main__
Cell
p2482
(dp2483
g7
I2
sba(i__main__
Cell
p2484
(dp2485
g7
I0
sba(i__main__
Cell
p2486
(dp2487
g7
I2
sba(i__main__
Cell
p2488
(dp2489
g7
I2
sba(i__main__
Cell
p2490
(dp2491
g7
I2
sba(i__main__
Cell
p2492
(dp2493
g7
I2
sba(i__main__
Cell
p2494
(dp2495
g7
I2
sba(i__main__
Cell
p2496
(dp2497
g7
I2
sba(i__main__
Cell
p2498
(dp2499
g7
I2
sba(i__main__
Cell
p2500
(dp2501
g7
I2
sba(i__main__
Cell
p2502
(dp2503
g7
I0
sba(i__main__
Cell
p2504
(dp2505
g7
I0
sbaa(lp2506
(i__main__
Cell
p2507
(dp2508
g7
I0
sba(i__main__
Cell
p2509
(dp2510
g7
I0
sba(i__main__
Cell
p2511
(dp2512
g7
I0
sba(i__main__
Cell
p2513
(dp2514
g7
I0
sba(i__main__
Cell
p2515
(dp2516
g7
I0
sba(i__main__
Cell
p2517
(dp2518
g7
I0
sba(i__main__
Cell
p2519
(dp2520
g7
I0
sba(i__main__
Cell
p2521
(dp2522
g7
I0
sba(i__main__
Cell
p2523
(dp2524
g7
I0
sba(i__main__
Cell
p2525
(dp2526
g7
I0
sba(i__main__
Cell
p2527
(dp2528
g7
I0
sba(i__main__
Cell
p2529
(dp2530
g7
I0
sba(i__main__
Cell
p2531
(dp2532
g7
I0
sba(i__main__
Cell
p2533
(dp2534
g7
I0
sba(i__main__
Cell
p2535
(dp2536
g7
I0
sba(i__main__
Cell
p2537
(dp2538
g7
I0
sba(i__main__
Cell
p2539
(dp2540
g7
I0
sba(i__main__
Cell
p2541
(dp2542
g7
I0
sba(i__main__
Cell
p2543
(dp2544
g7
I0
sba(i__main__
Cell
p2545
(dp2546
g7
I0
sba(i__main__
Cell
p2547
(dp2548
g7
I0
sba(i__main__
Cell
p2549
(dp2550
g7
I2
sba(i__main__
Cell
p2551
(dp2552
g7
I2
sba(i__main__
Cell
p2553
(dp2554
g7
I2
sba(i__main__
Cell
p2555
(dp2556
g7
I2
sba(i__main__
Cell
p2557
(dp2558
g7
I2
sba(i__main__
Cell
p2559
(dp2560
g7
I0
sba(i__main__
Cell
p2561
(dp2562
g7
I0
sba(i__main__
Cell
p2563
(dp2564
g7
I0
sba(i__main__
Cell
p2565
(dp2566
g7
I0
sbaa(lp2567
(i__main__
Cell
p2568
(dp2569
g7
I0
sba(i__main__
Cell
p2570
(dp2571
g7
I0
sba(i__main__
Cell
p2572
(dp2573
g7
I0
sba(i__main__
Cell
p2574
(dp2575
g7
I0
sba(i__main__
Cell
p2576
(dp2577
g7
I0
sba(i__main__
Cell
p2578
(dp2579
g7
I0
sba(i__main__
Cell
p2580
(dp2581
g7
I0
sba(i__main__
Cell
p2582
(dp2583
g7
I0
sba(i__main__
Cell
p2584
(dp2585
g7
I0
sba(i__main__
Cell
p2586
(dp2587
g7
I0
sba(i__main__
Cell
p2588
(dp2589
g7
I0
sba(i__main__
Cell
p2590
(dp2591
g7
I0
sba(i__main__
Cell
p2592
(dp2593
g7
I0
sba(i__main__
Cell
p2594
(dp2595
g7
I0
sba(i__main__
Cell
p2596
(dp2597
g7
I0
sba(i__main__
Cell
p2598
(dp2599
g7
I0
sba(i__main__
Cell
p2600
(dp2601
g7
I0
sba(i__main__
Cell
p2602
(dp2603
g7
I0
sba(i__main__
Cell
p2604
(dp2605
g7
I0
sba(i__main__
Cell
p2606
(dp2607
g7
I0
sba(i__main__
Cell
p2608
(dp2609
g7
I0
sba(i__main__
Cell
p2610
(dp2611
g7
I2
sba(i__main__
Cell
p2612
(dp2613
g7
I2
sba(i__main__
Cell
p2614
(dp2615
g7
I2
sba(i__main__
Cell
p2616
(dp2617
g7
I2
sba(i__main__
Cell
p2618
(dp2619
g7
I0
sba(i__main__
Cell
p2620
(dp2621
g7
I0
sba(i__main__
Cell
p2622
(dp2623
g7
I0
sba(i__main__
Cell
p2624
(dp2625
g7
I0
sba(i__main__
Cell
p2626
(dp2627
g7
I0
sbaa(lp2628
(i__main__
Cell
p2629
(dp2630
g7
I0
sba(i__main__
Cell
p2631
(dp2632
g7
I0
sba(i__main__
Cell
p2633
(dp2634
g7
I0
sba(i__main__
Cell
p2635
(dp2636
g7
I0
sba(i__main__
Cell
p2637
(dp2638
g7
I0
sba(i__main__
Cell
p2639
(dp2640
g7
I0
sba(i__main__
Cell
p2641
(dp2642
g7
I0
sba(i__main__
Cell
p2643
(dp2644
g7
I0
sba(i__main__
Cell
p2645
(dp2646
g7
I0
sba(i__main__
Cell
p2647
(dp2648
g7
I0
sba(i__main__
Cell
p2649
(dp2650
g7
I0
sba(i__main__
Cell
p2651
(dp2652
g7
I0
sba(i__main__
Cell
p2653
(dp2654
g7
I0
sba(i__main__
Cell
p2655
(dp2656
g7
I0
sba(i__main__
Cell
p2657
(dp2658
g7
I0
sba(i__main__
Cell
p2659
(dp2660
g7
I0
sba(i__main__
Cell
p2661
(dp2662
g7
I0
sba(i__main__
Cell
p2663
(dp2664
g7
I0
sba(i__main__
Cell
p2665
(dp2666
g7
I0
sba(i__main__
Cell
p2667
(dp2668
g7
I0
sba(i__main__
Cell
p2669
(dp2670
g7
I0
sba(i__main__
Cell
p2671
(dp2672
g7
I2
sba(i__main__
Cell
p2673
(dp2674
g7
I2
sba(i__main__
Cell
p2675
(dp2676
g7
I2
sba(i__main__
Cell
p2677
(dp2678
g7
I2
sba(i__main__
Cell
p2679
(dp2680
g7
I0
sba(i__main__
Cell
p2681
(dp2682
g7
I0
sba(i__main__
Cell
p2683
(dp2684
g7
I0
sba(i__main__
Cell
p2685
(dp2686
g7
I0
sba(i__main__
Cell
p2687
(dp2688
g7
I0
sbaa(lp2689
(i__main__
Cell
p2690
(dp2691
g7
I0
sba(i__main__
Cell
p2692
(dp2693
g7
I0
sba(i__main__
Cell
p2694
(dp2695
g7
I0
sba(i__main__
Cell
p2696
(dp2697
g7
I0
sba(i__main__
Cell
p2698
(dp2699
g7
I0
sba(i__main__
Cell
p2700
(dp2701
g7
I0
sba(i__main__
Cell
p2702
(dp2703
g7
I0
sba(i__main__
Cell
p2704
(dp2705
g7
I0
sba(i__main__
Cell
p2706
(dp2707
g7
I0
sba(i__main__
Cell
p2708
(dp2709
g7
I0
sba(i__main__
Cell
p2710
(dp2711
g7
I0
sba(i__main__
Cell
p2712
(dp2713
g7
I0
sba(i__main__
Cell
p2714
(dp2715
g7
I0
sba(i__main__
Cell
p2716
(dp2717
g7
I0
sba(i__main__
Cell
p2718
(dp2719
g7
I0
sba(i__main__
Cell
p2720
(dp2721
g7
I0
sba(i__main__
Cell
p2722
(dp2723
g7
I0
sba(i__main__
Cell
p2724
(dp2725
g7
I0
sba(i__main__
Cell
p2726
(dp2727
g7
I0
sba(i__main__
Cell
p2728
(dp2729
g7
I0
sba(i__main__
Cell
p2730
(dp2731
g7
I0
sba(i__main__
Cell
p2732
(dp2733
g7
I2
sba(i__main__
Cell
p2734
(dp2735
g7
I2
sba(i__main__
Cell
p2736
(dp2737
g7
I2
sba(i__main__
Cell
p2738
(dp2739
g7
I0
sba(i__main__
Cell
p2740
(dp2741
g7
I0
sba(i__main__
Cell
p2742
(dp2743
g7
I0
sba(i__main__
Cell
p2744
(dp2745
g7
I0
sba(i__main__
Cell
p2746
(dp2747
g7
I0
sba(i__main__
Cell
p2748
(dp2749
g7
I0
sbaa(lp2750
(i__main__
Cell
p2751
(dp2752
g7
I0
sba(i__main__
Cell
p2753
(dp2754
g7
I0
sba(i__main__
Cell
p2755
(dp2756
g7
I0
sba(i__main__
Cell
p2757
(dp2758
g7
I0
sba(i__main__
Cell
p2759
(dp2760
g7
I0
sba(i__main__
Cell
p2761
(dp2762
g7
I0
sba(i__main__
Cell
p2763
(dp2764
g7
I0
sba(i__main__
Cell
p2765
(dp2766
g7
I0
sba(i__main__
Cell
p2767
(dp2768
g7
I0
sba(i__main__
Cell
p2769
(dp2770
g7
I0
sba(i__main__
Cell
p2771
(dp2772
g7
I0
sba(i__main__
Cell
p2773
(dp2774
g7
I0
sba(i__main__
Cell
p2775
(dp2776
g7
I0
sba(i__main__
Cell
p2777
(dp2778
g7
I0
sba(i__main__
Cell
p2779
(dp2780
g7
I0
sba(i__main__
Cell
p2781
(dp2782
g7
I0
sba(i__main__
Cell
p2783
(dp2784
g7
I0
sba(i__main__
Cell
p2785
(dp2786
g7
I0
sba(i__main__
Cell
p2787
(dp2788
g7
I0
sba(i__main__
Cell
p2789
(dp2790
g7
I0
sba(i__main__
Cell
p2791
(dp2792
g7
I2
sba(i__main__
Cell
p2793
(dp2794
g7
I2
sba(i__main__
Cell
p2795
(dp2796
g7
I2
sba(i__main__
Cell
p2797
(dp2798
g7
I2
sba(i__main__
Cell
p2799
(dp2800
g7
I0
sba(i__main__
Cell
p2801
(dp2802
g7
I0
sba(i__main__
Cell
p2803
(dp2804
g7
I0
sba(i__main__
Cell
p2805
(dp2806
g7
I0
sba(i__main__
Cell
p2807
(dp2808
g7
I0
sba(i__main__
Cell
p2809
(dp2810
g7
I0
sbaa(lp2811
(i__main__
Cell
p2812
(dp2813
g7
I0
sba(i__main__
Cell
p2814
(dp2815
g7
I0
sba(i__main__
Cell
p2816
(dp2817
g7
I0
sba(i__main__
Cell
p2818
(dp2819
g7
I0
sba(i__main__
Cell
p2820
(dp2821
g7
I0
sba(i__main__
Cell
p2822
(dp2823
g7
I0
sba(i__main__
Cell
p2824
(dp2825
g7
I0
sba(i__main__
Cell
p2826
(dp2827
g7
I0
sba(i__main__
Cell
p2828
(dp2829
g7
I0
sba(i__main__
Cell
p2830
(dp2831
g7
I0
sba(i__main__
Cell
p2832
(dp2833
g7
I0
sba(i__main__
Cell
p2834
(dp2835
g7
I0
sba(i__main__
Cell
p2836
(dp2837
g7
I0
sba(i__main__
Cell
p2838
(dp2839
g7
I0
sba(i__main__
Cell
p2840
(dp2841
g7
I0
sba(i__main__
Cell
p2842
(dp2843
g7
I0
sba(i__main__
Cell
p2844
(dp2845
g7
I0
sba(i__main__
Cell
p2846
(dp2847
g7
I0
sba(i__main__
Cell
p2848
(dp2849
g7
I0
sba(i__main__
Cell
p2850
(dp2851
g7
I0
sba(i__main__
Cell
p2852
(dp2853
g7
I2
sba(i__main__
Cell
p2854
(dp2855
g7
I2
sba(i__main__
Cell
p2856
(dp2857
g7
I2
sba(i__main__
Cell
p2858
(dp2859
g7
I0
sba(i__main__
Cell
p2860
(dp2861
g7
I0
sba(i__main__
Cell
p2862
(dp2863
g7
I0
sba(i__main__
Cell
p2864
(dp2865
g7
I0
sba(i__main__
Cell
p2866
(dp2867
g7
I0
sba(i__main__
Cell
p2868
(dp2869
g7
I0
sba(i__main__
Cell
p2870
(dp2871
g7
I0
sbaa(lp2872
(i__main__
Cell
p2873
(dp2874
g7
I0
sba(i__main__
Cell
p2875
(dp2876
g7
I0
sba(i__main__
Cell
p2877
(dp2878
g7
I0
sba(i__main__
Cell
p2879
(dp2880
g7
I0
sba(i__main__
Cell
p2881
(dp2882
g7
I0
sba(i__main__
Cell
p2883
(dp2884
g7
I0
sba(i__main__
Cell
p2885
(dp2886
g7
I0
sba(i__main__
Cell
p2887
(dp2888
g7
I0
sba(i__main__
Cell
p2889
(dp2890
g7
I0
sba(i__main__
Cell
p2891
(dp2892
g7
I0
sba(i__main__
Cell
p2893
(dp2894
g7
I0
sba(i__main__
Cell
p2895
(dp2896
g7
I0
sba(i__main__
Cell
p2897
(dp2898
g7
I0
sba(i__main__
Cell
p2899
(dp2900
g7
I0
sba(i__main__
Cell
p2901
(dp2902
g7
I0
sba(i__main__
Cell
p2903
(dp2904
g7
I0
sba(i__main__
Cell
p2905
(dp2906
g7
I0
sba(i__main__
Cell
p2907
(dp2908
g7
I0
sba(i__main__
Cell
p2909
(dp2910
g7
I2
sba(i__main__
Cell
p2911
(dp2912
g7
I2
sba(i__main__
Cell
p2913
(dp2914
g7
I2
sba(i__main__
Cell
p2915
(dp2916
g7
I2
sba(i__main__
Cell
p2917
(dp2918
g7
I2
sba(i__main__
Cell
p2919
(dp2920
g7
I0
sba(i__main__
Cell
p2921
(dp2922
g7
I0
sba(i__main__
Cell
p2923
(dp2924
g7
I0
sba(i__main__
Cell
p2925
(dp2926
g7
I0
sba(i__main__
Cell
p2927
(dp2928
g7
I0
sba(i__main__
Cell
p2929
(dp2930
g7
I0
sba(i__main__
Cell
p2931
(dp2932
g7
I0
sbaa(lp2933
(i__main__
Cell
p2934
(dp2935
g7
I0
sba(i__main__
Cell
p2936
(dp2937
g7
I0
sba(i__main__
Cell
p2938
(dp2939
g7
I0
sba(i__main__
Cell
p2940
(dp2941
g7
I0
sba(i__main__
Cell
p2942
(dp2943
g7
I0
sba(i__main__
Cell
p2944
(dp2945
g7
I0
sba(i__main__
Cell
p2946
(dp2947
g7
I0
sba(i__main__
Cell
p2948
(dp2949
g7
I0
sba(i__main__
Cell
p2950
(dp2951
g7
I0
sba(i__main__
Cell
p2952
(dp2953
g7
I0
sba(i__main__
Cell
p2954
(dp2955
g7
I0
sba(i__main__
Cell
p2956
(dp2957
g7
I0
sba(i__main__
Cell
p2958
(dp2959
g7
I0
sba(i__main__
Cell
p2960
(dp2961
g7
I0
sba(i__main__
Cell
p2962
(dp2963
g7
I0
sba(i__main__
Cell
p2964
(dp2965
g7
I0
sba(i__main__
Cell
p2966
(dp2967
g7
I0
sba(i__main__
Cell
p2968
(dp2969
g7
I2
sba(i__main__
Cell
p2970
(dp2971
g7
I2
sba(i__main__
Cell
p2972
(dp2973
g7
I0
sba(i__main__
Cell
p2974
(dp2975
g7
I2
sba(i__main__
Cell
p2976
(dp2977
g7
I2
sba(i__main__
Cell
p2978
(dp2979
g7
I2
sba(i__main__
Cell
p2980
(dp2981
g7
I0
sba(i__main__
Cell
p2982
(dp2983
g7
I0
sba(i__main__
Cell
p2984
(dp2985
g7
I0
sba(i__main__
Cell
p2986
(dp2987
g7
I0
sba(i__main__
Cell
p2988
(dp2989
g7
I0
sba(i__main__
Cell
p2990
(dp2991
g7
I0
sba(i__main__
Cell
p2992
(dp2993
g7
I0
sbaa(lp2994
(i__main__
Cell
p2995
(dp2996
g7
I0
sba(i__main__
Cell
p2997
(dp2998
g7
I0
sba(i__main__
Cell
p2999
(dp3000
g7
I0
sba(i__main__
Cell
p3001
(dp3002
g7
I0
sba(i__main__
Cell
p3003
(dp3004
g7
I0
sba(i__main__
Cell
p3005
(dp3006
g7
I0
sba(i__main__
Cell
p3007
(dp3008
g7
I0
sba(i__main__
Cell
p3009
(dp3010
g7
I0
sba(i__main__
Cell
p3011
(dp3012
g7
I0
sba(i__main__
Cell
p3013
(dp3014
g7
I0
sba(i__main__
Cell
p3015
(dp3016
g7
I0
sba(i__main__
Cell
p3017
(dp3018
g7
I0
sba(i__main__
Cell
p3019
(dp3020
g7
I0
sba(i__main__
Cell
p3021
(dp3022
g7
I0
sba(i__main__
Cell
p3023
(dp3024
g7
I0
sba(i__main__
Cell
p3025
(dp3026
g7
I0
sba(i__main__
Cell
p3027
(dp3028
g7
I0
sba(i__main__
Cell
p3029
(dp3030
g7
I2
sba(i__main__
Cell
p3031
(dp3032
g7
I0
sba(i__main__
Cell
p3033
(dp3034
g7
I0
sba(i__main__
Cell
p3035
(dp3036
g7
I2
sba(i__main__
Cell
p3037
(dp3038
g7
I2
sba(i__main__
Cell
p3039
(dp3040
g7
I2
sba(i__main__
Cell
p3041
(dp3042
g7
I0
sba(i__main__
Cell
p3043
(dp3044
g7
I0
sba(i__main__
Cell
p3045
(dp3046
g7
I0
sba(i__main__
Cell
p3047
(dp3048
g7
I0
sba(i__main__
Cell
p3049
(dp3050
g7
I0
sba(i__main__
Cell
p3051
(dp3052
g7
I0
sba(i__main__
Cell
p3053
(dp3054
g7
I0
sbaasS'cities'
p3055
(lp3056
(i__main__
City
p3057
(dp3058
S'building'
p3059
I01
sS'buildtype'
p3060
I0
sS'name'
p3061
S'BlueCap'
p3062
sS'buildprogress'
p3063
I0
sS'buildrate'
p3064
I10
sS'y'
p3065
I5
sS'owner'
p3066
I1
sS'x'
p3067
I5
sba(i__main__
City
p3068
(dp3069
g3059
I01
sg3060
I0
sg3061
S'RedCap'
p3070
sg3063
I1
sg3064
I10
sg3065
I10
sg3066
I2
sg3067
I15
sba(i__main__
City
p3071
(dp3072
g3059
I01
sg3060
I0
sg3061
S'Greenville'
p3073
sg3063
I6
sg3064
I10
sg3065
I15
sg3066
I3
sg3067
I25
sba(i__main__
City
p3074
(dp3075
g3059
I00
sg3060
I0
sg3061
S'Paris'
p3076
sg3063
I0
sg3064
I10
sg3065
I20
sg3066
I0
sg3067
I7
sba(i__main__
City
p3077
(dp3078
g3059
I00
sg3060
I0
sg3061
S'Denver'
p3079
sg3063
I0
sg3064
I10
sg3065
I5
sg3066
I0
sg3067
I12
sbasS'msgs'
p3080
(lp3081
S'changed terrain paintbrush to mountains (^)'
p3082
aS'saving game to file save'
p3083
aS'saving game to file save'
p3084
asS'px'
p3085
I6
sS'py'
p3086
I15
sS'turn'
p3087
I10
sS'curfac'
p3088
I2
sS'mapw'
p3089
I50
sS'units'
p3090
(lp3091
(i__main__
Unit
p3092
(dp3093
S'moveleft'
p3094
I1
sg3065
I6
sg3066
I1
sg3067
I6
sS'hp'
p3095
I2
sS'type'
p3096
I0
sba(i__main__
Unit
p3097
(dp3098
g3094
I2
sg3065
I4
sg3066
I1
sg3067
I7
sg3095
I3
sg3096
I1
sba(i__main__
Unit
p3099
(dp3100
g3094
I1
sg3065
I11
sg3066
I2
sg3067
I19
sg3095
I2
sg3096
I0
sba(i__main__
Unit
p3101
(dp3102
g3094
I2
sg3065
I13
sg3066
I2
sg3067
I18
sg3095
I3
sg3096
I1
sba(i__main__
Unit
p3103
(dp3104
g3094
I1
sg3065
I9
sg3066
I2
sg3067
I16
sg3095
I2
sg3096
I0
sba(i__main__
Unit
p3105
(dp3106
g3094
I1
sg3065
I12
sg3066
I2
sg3067
I14
sg3095
I2
sg3096
I0
sba(i__main__
Unit
p3107
(dp3108
g3094
I1
sg3065
I11
sg3066
I2
sg3067
I15
sg3095
I2
sg3096
I0
sba(i__main__
Unit
p3109
(dp3110
g3094
I1
sg3065
I13
sg3066
I3
sg3067
I26
sg3095
I1
sg3096
I2
sba(i__main__
Unit
p3111
(dp3112
g3094
I1
sg3065
I21
sg3066
I0
sg3067
I5
sg3095
I1
sg3096
I2
sba(i__main__
Unit
p3113
(dp3114
g3094
I1
sg3065
I22
sg3066
I0
sg3067
I8
sg3095
I1
sg3096
I2
sba(i__main__
Unit
p3115
(dp3116
g3094
I1
sg3065
I22
sg3066
I0
sg3067
I7
sg3095
I1
sg3096
I2
sba(i__main__
Unit
p3117
(dp3118
g3094
I1
sg3065
I20
sg3066
I0
sg3067
I7
sg3095
I1
sg3096
I2
sba(i__main__
Unit
p3119
(dp3120
g3094
I1
sg3065
I20
sg3066
I0
sg3067
I9
sg3095
I1
sg3096
I2
sba(i__main__
Unit
p3121
(dp3122
S'moveleft'
p3123
I1
sS'hp'
p3124
I2
sS'y'
p3125
I15
sS'owner'
p3126
I3
sS'x'
p3127
I24
sS'type'
p3128
I0
sba(i__main__
Unit
p3129
(dp3130
g3123
I1
sg3124
I2
sg3125
I16
sg3126
I3
sg3127
I25
sg3128
I0
sba(i__main__
Unit
p3131
(dp3132
g3123
I1
sg3124
I2
sg3125
I15
sg3126
I3
sg3127
I27
sg3128
I0
sba(i__main__
Unit
p3133
(dp3134
g3123
I1
sg3124
I2
sg3125
I5
sg3126
I1
sg3127
I9
sg3128
I0
sba(i__main__
Unit
p3135
(dp3136
g3123
I1
sg3124
I2
sg3125
I15
sg3126
I3
sg3127
I25
sg3128
I0
sba(i__main__
Unit
p3137
(dp3138
g3123
I1
sg3124
I2
sg3125
I10
sg3126
I2
sg3127
I15
sg3128
I0
sba(i__main__
Unit
p3139
(dp3140
g3123
I1
sg3124
I2
sg3125
I5
sg3126
I1
sg3127
I5
sg3128
I0
sbasS'factions'
p3141
(dp3142
I0
(i__main__
Faction
p3143
(dp3144
S'color'
p3145
I1
sg3061
S'Neutral'
p3146
sbsI1
(i__main__
Faction
p3147
(dp3148
g3145
I2
sg3061
S'Blue'
p3149
sbsI2
(i__main__
Faction
p3150
(dp3151
g3145
I3
sg3061
S'Red'
p3152
sbsI3
(i__main__
Faction
p3153
(dp3154
g3145
I4
sg3061
S'Green'
p3155
sbssS'maph'
p3156
I30
sb.